cnumpy.core.multiarray
_reconstruct
p1
(ctabular.tab
tabarray
p2
(I0
tS'b'
tRp3
(I1
(I550
tcnumpy
dtype
p4
(S'S40'
I0
I1
tRp5
(I3
S'|'
NNNI40
I1
I0
tbI00
S'797918fba22473513a3838e69050fe24e8178fdb13e14938764e380b9a62c426e250fc463425748bcb8b75b9c84f344b99faad25f722144c6bb80d5e05d6b3ed038551c33e3d49d4d3f3a04f0fa6988a1c2f0d21c6bb08573fad58286d340d57c79c1d529fc22cd58012bf484eabb2cf79ab959cc8c66f118a4a77b67ec1150793debcdf226292f251d918cd51d67ede8b12f198611f00c25985d853999156fdd9074463837274a8027741eb700bce49ceee6bba6be2e4f4cad91ba07a0f9180188f43a2a9fea454da2b9e0433669c161b809d21e1f448f73057ee3568ec8636a89258581a917d347bcd8c60dbd0cc79578e8a671e6ee40ce90411eef7d916819f0aec0fdfb843b02769f0a1a858f9bd8aba5fd625c3050aaba37cef61fe9bd254892140debc9c1ff6f5b55d3e165d3cce5d279de62f35b811487d1334e2deb2f3e16408beb774995ed57455274c8936dd5bebd7f23424e78dc2943de5522ca67e0c80b58147c86853cd09877f21fbc96187daeee28d75c74cabf3c74d99f0244c4fc207f2e0a285a5b3280d4df829084215d9ac5aeeaf34f8efbc77243e6b9b30d5955dba2e2abb8044da028d1493577d9f644429f6f57c5993143843150d87a2ea437e985cadcc13f0c274f5ea9f8421981a4caad91f1e01fb6dad5f85c68cdbe1a74c7e8ad76317467fa794134582c6d7f6cd200f787f95a45afc922a24c3cc49d65c85d74f962a073cf1dfd17374811c6cc0123fcab86fc736acbe208eae8a9bfb1d0a259b966305648454e63e288f2a62a2b17f6957bf88aeb318c9805ae70d8304866a6076dd2a91b2508a5b20c1bd07f877ecffacc70102986d4f2b990983b5fc7b3a8051e72b42fe8e395ae9be94c093dd8cd421a7144890d5aded7e724404bbf3b8e7faa6b1eb33a0f640a8890381788f57dd85723d26990c214b46222ecb05035c6939f00624b317d252869110b7a2e6c84237aedae1f81e6de71e9c080068ae7403500c462bcbb2de909ba17791bcfc8c9bf22e95ab6e236e75ca1c54d1405a82dbfdb243ab5b8dc4392eb20c89f28d187140aad5a6ac92727a9c6ac28bf3b25363978b81f95cd6b9565adaa51382ae14ab53cba2b63b31a360623e763af3e31d0e2042d35bf41e13bb49f717fa7efc368268e835313bbffd48c9da46d31db9d5bf90db33dfa39acd5f38e380481e44e875a13179fb1c0f8d385edc763959960733e9ea718e5eb3b5dd2c8282725bf8fd310910b5ad29d8d505ffc109e438b8499f8ce6198ccfc34abdf3d0c2bc77817bc5a02b3c3ce40554f6800a7a297dcc83333f2668db9f9262de449ad77d0d0a98b3403d38ed21b6479b5eb0a0677439f55428ba450758c1b72bff94affa032f5c41fd7a006c9f939eac2786617ce8ac88615bfaa58ec7e28d1d4b1d07df98b17ceed116fe8808fd267002c995f21ebec1943c5d3e80a1461b582816bb66f1e5afd09cfaf5e54fca0f88dacfee16226515f9090c8420a65b92581c93ec57adc68ce9c6ffac8ecb072034be7d7512f48e144cb7d210ab85f052bb5370e139233c151c516d1ce7da76d52e3ad7cc27f8d907ca2370ff1ef732e7a7edadfe982e1287b4654da50977cdd25968ca0b70e75064145a747ba481d181f8c7f23a9b2f3650bca2c84a11e18f170939dfb37594e6dba8988d9c375da5bbfe7e9127c78ca6a9be31bddda3496d6558816bfcfffea86c763f5619558363edb91e0a2403105d98c644e440df99bcbfd1c43e990b6702d328a60da5956b3b42568bfffe619bcab81b7de48ef57e465ecfeeaf520a341eacc7c9f533541a0b5480138795be5ac0c635b024a806cad9ffc7f53a12cc5148e4fe4c481196cb63b31b9ce1cc5785b906862da5fd96d7b4897ab555839cc6f6c04e7221c741a8247f2f756b098aec7b0063b675a4f7c0670b068dd91e5b41a1ee1c5a6d09bd0fda5f4687ed58476716c9012697e3c75c3ca5f11741969b029d8d96933600685cddf1713a0913d1ee458d7d04213039adcdef819c663f320fde8c71c069f8b266cbce629f2de114a4dc4c3f9b0ee87a01b8311010917d8e30b2549048c0a76a0419c10e967b89b33839f49609bd2eea23cfc56dd219a0fd42eee1438ffa6263a5c8f8af2827827ec414235654eb146abadada32a62029858732447cefd36f1a518215c3635aca38306944b3d61bbfb44fabacbf1016f1d64bd98a86d01fc884c333c5f3fb5ccc439b659b078d005cba778b67c9d68f45a2c382d458e59bb2e2ac791e515296cf58a62acb3efe04dc4d330eb0e8f19e7d1bddd338e67c1ca10ee371e1f3918c08fba256fc0c51b1ecbd30f557aa63134c7705a6076e4a7db664c8009e2899c6258d74153ea07fb04ef23d0ac7becbb53fafe3f71f81e5754e9f1e898dfb57944c84d12efe1ee30a89baf742462202687ffdd6dd26c1e3191715c1712fabc686db6d0d85f7675d6797ae179128cab7679531bba8e5eded0c1bdd5b086e1e20c612d36e22403a6f053338c7c684014e5d1d480a29b5e94280b49631d41245a799771aa4a8e26041aa3178d98e0b6de1843fb340eb26403074b2aed04562d56b10bb6c01c2f4a4e99a677b8a8a3419100b065ca3ce567fc7e9fa976a69f66507ab4cccce4f74cbd6f5de12708f5536043149864878414fd0021883f2d382eec4d33d0193fe4d040ae372417f6c356780a9b3f8b9fa5d812594f4c879ea0a2a4467aa509655f5cf0cc589d1997aba4a08ee9ca69928594ae31c5027237c3755609c860cde33672cc1290b6bb2179dabc169d41cb780284c532fc618916b744af6be8c950f74aeae5c50b6bc2389d6b52a1936ebff8ee1d19fe4ca45cb8c517bb2bd5009e345de25b68b49a109d52638bdff55c3141e8d8f126ec627912a39143969fd30b1a96e2c41a82a5e90f26c0c4df3247c67e315f3cab8287c10057118d20bdce3c2a7bf0853303d4a2b93cb0ec4c15f57031804bf79ce1b675ce1ed44c839c9c691e5d73936ecb8b958f85a78668122c115cdd399c2af26286ad946ca4378e7b402a66a91f83f0af932d21fe3594c08d5648fb518e97e3ea955f96ca63ed5e959216f57c6c192beb48a36f44d277a9f6cdaa72cc6030de180ee28d869235954a9ee297524c5761118fbcb2a2c0d651adbe31d4510d106c91ff3d41970966f16aea688ed7099fe6a0ab108b6073c41bbb398601b52659c31a458ec6eb24d1c7fc041f9697a46b99d769c324a8b6f27826d08df6a2960a8e2bf3842ac5b241fcab221c933a719b8ffdcf3928a880adef916186cc2ce3c424e813a16ac36fe641b1102f204a4da384623f2131aeef08f0fe0c1e1b1741ff520d101549dc00343ed577b039c031244ca3d332116ac214b4865005569be40bf151b297cb0244a53785cd5426e6b99ac32ffffafea1a8d29af9c310e9689b8b13dcd9fe25a7751c9ecaf0a17163d51bcd3d2aed976cfe5d00134ab6bf00c518d044a0bcf2476edf7893a4a51fe1d81196ce908908aaff9dbb1d3dcfe9882d60f95b09db6580d7f5a09b5275f4fbd65a29233e6ce024159afd6737ff7a001df629f9d41b8a019624911c149991374c9b70733dac5c3357b3b1303ca2a9f4c70cb30268b2e3e25d17ed7cacde401ad1d7862aa723aed3c063faa874edd8c5ddd97c7ada969e2e378c42125aae1afbb265310f4f6cf3480afaa03621afff076dee2a2b47cdd51cbca7e8123717d0a35638a1a5221c8b04deaa6e59eaf8e3e0a3cf67304e71dbe6eff0696b4496be9d142c4e763252bfed23da646e501ab9a542ba65f07c54928dd584949332cc4caa70c1da562ec6e989453bc29562aa4d1fb673aff0b93e9526db884338a09cde4d9a08f01f3eef038834773229879e8fc84fd3dca54631023052a1d70fcd622b2ed59bce02dc6eacfd57e82829393b6e25f00f356c62b4392531779a961a7a5fb996dd9d4e3dd86d217a4bee260d059947573a0c042cea9c3e05bea9ba029c95fa25b9f3706450993d2d9105ea97f85c71b1d4a6416763807d62f7537a26899df27d60a79c167bd9eff47dc61fd5b545f8abb183f33e09b069d3b4404663cab4195c5aa92a8c011208abce54bc32f221d06b4e514ba912dd81af6ab89e5e7df86d050274ae90185b570728d3f838c107da3e25e207bf1bce426aef83ceb12d1e81788840d9d6caec5fa6c41979c43a7732b21158139f25ffaeb0ea56461675756d241137b8f51ee51f48ad0b08aecba700bcef350bed2758b0334f924b6982a25ca93f3da505e9dfb1efdd8bdfabe733beb0f6032b66965892904ce06a156a0e01c6d45d23f5297686db40d28ffe42b20c4e7d30316c448652574bce462ce6c291c089097154f7467bc07cc06cf21e53dc85030d63eefbf624d4cb13cdd6a964c6da5dc2593b7687deab207f9bcbd59533970c5d01e6eb9f07b0bf61e8bea2389e117f3af7975a6f27ca2b14f7bea9f69d8232d40a0d487edc95e96132bc0f7b55b0c1ad6e0e5e566b37bcd42de641d379a5b120debec64decff81fc62050dbd6e68c53758bb2a057ee908da54b87d1f72c9bc5923ef0417c9f6c282b6ba84f8621bb0e39678f4c58d80db97b3bdfbea842191a6f7447d742f8c845e2bca962cdb5286f5871e8750c6bf9df43e6f47892f675b3e39d0971abd616ab5854af718e214fe39b78b4b92f63e1e0c1ea029d8410b382f0c01538bd58719c52cdd7687e2613b8d9719aec859a65a71f9ab0c0acc703a6d90f02d6548ba12e2f5233d5f13205482f540a47e98a6f2c1f8565361bede612f968536bfb123fa818e4f89a6b1ba0bcfa64922eff4476c63623271a9fab863e17b2756b2127e14eef12c427b31329f30393679a9a374dedd432c1eb550fc031e1f417e86fec1a1a02e54ad8cf63cfa404509e27c7bc762b6c82e4a32823ac2e8ca4cb551b65125486c4873cd6ed20f6947c2cff756fa608d42d85a16bb9522d563ba2d6f52ad2cbf112a7e7d4b34e9ebaaa297024d0d1985bd7ea182b1dd64defa8f5c753518c2332ea58594e2eb1a0d14b0433cfdf6559b523f940bb2806624cca7cc4e1716ec2ef7aa579e5d3c37b2bd64d36531017cbc455e9b8147610dd81cc67ea22384dfc4f04088fdbbbc89c1b8555553cf6bc9c928f576c0a4ae6001920714d2ea9f4f2e538f50704bc109d891037e0119f2cf833be67845b5bb3e7e9dfe78034ab0407f8ba8ce621e46015bf0722101737ac613b83d2f48bb79a53adf33ba9a12136191cb7fe3e5b9e1e738d52250f0678f4fa76e3db9cd26fbc5c0643e8aef1d861311b565b74447374cfaf2f2cdd9fca15669dc378ac3ace98618ac83dde6931122f1b2411fae8494bbb4457a1cd9156544a186663443128541289a20eb83fd6c78e12574f2679e75b7f4d4ef4a2b5c3c2bdf5ab03ee68acda2df5bf0581f107c13d577e3121a0e426a9a3f5847ecc2cd2fccee59a4a2ce0d5f4c1707907221a8323e2c0a5011bbd2f764c985c0e8173d6451e7bf271a711eb69bf8099b0924273b5070a79e9e63e3c7013bd5c0a87a89eb23b441b234f15dce7e5c507659a2deb2a015c6cf0d3b1c25aa5829469335503a3eadd282973522e23b469eb2d258f0044b527b41af449924823a79d238da14787930430322adba3f33ce35b58eba62b29e28bd6ab950d19764095f03eccb964198d18a76484862b5752fbd9fb77f90abddfa0d0bc16820393e4e6a568db8a49fab283c480b291b9f1ee4f1a2011b00e0805752f9321e04e24862bf4d07e903d3e88e993423f221d9aee11d4014b027759ff1dde48cfa8c0112fc6a92b1d87433fa45f76bef71035608eafc42083ccd3372de8acf56271937d728ea6d6f22a003a850211e7a2687e410b7ef3108903ba4f2f655198b1e130504011581daa48ef441d5b140a55326239e848f60637316e25b92917c163b33375f2dfca0c5c2c805841ade3c240b16e7ee755615e4a02648020873de1d078bdaed76c3d22627180f9c68a14709c9a8b67d43be00fd6dbaf15c0210c3be6c23a679b0a70695509bd06fc3356c84291808406b074dc16dac41850be0033e09d958972b3077a86241bc80ae03486da69bbd208df91ed2ae1322755cfe59c4b9270c1c1b7bc2b3ccc10aca313250d076bef40bc32706623a94cb1bb2010a4576cd0d0979d72c6f28c50abd840d67b229c3308ed97c226a0afaed87f9d5f580030e66a630d493c7bfedbfedb8e6bc962fa0c271535b2f232748e83b9a40e3c6af6251a5271f83656199cbe86a9f07a586998647d6cc3f3eaa3b3a2a43d87f98a8f632eb730e4284e5d89389d0cb1e1a267c9e760e88e7fc97daabe5f5debd5897b06a5b80a27565d6a5a37df10a065ec890a4b6c4e3cb41e4e6173e0fa84c3dd778b541c65ed52fdf0c076050e8af39bb9a19e5a441d5bc6db3b3066b85fa541f52f7a735b6ece5bc7aaab9ae4419bd4793a375fc67463a19c2c53a7778a3ec5abf8cea26d338891c4b93d672881c2105598f0cb571d830c5de63121b5af88daa91b6d5b13bd9370941e8e91f5d0581ae920ae4d6fbbbb8b925e2a6022ec7b82fcd144bd79e9229168e7d8f5f0760762a74ce91af2e388dde1d7bf146defd28b6d53db18de41ce0314c0d6313dedba96aa12bb22cbdc584c106a6a05467a83c31e475269fcec37ae275c708728e920bb0f1488b9d9e7b4d89c75c17fcb08f97eb6efee2ae1f1d57c092bad517fc64c034beef7aa0b6392a6287bba30322e7a203f4b9f7ab6b22ee2b3419e55e552a7a8c4dc098eb6a4f88c6e17d958e08c30d7de246ae9126587eae508df3911e3f2222393606f26bbc257fc96f12198ba429ac03c39963cd9c4b00769d7a5b5ed4e0878497080362e7d42a24e3a4d2be52cc535230a0e3fa553eedff4dd207e053c5989ab2dbf6ad1653a94e518cf617c45f6520609ec4ca569611d26eff0d303a329032e8b727f6f33da195dcb2445a727ddcfc994614491c96df24eef4c4173576fc2e6a2c3dc0329ed870f901ea80f3cd34a5acc9eacaf8a2a83902fa29aa43dac8a89b748979b36d04128a55cb3d185a1087919838887ab819bcdc2b6fae7c65006ac989604d1bd710da29dbb5632d3f68ff2f8687ed65838a2f076c607950e985d464bc4f409265942f3cf2038b4cd589e6def832bef9de78c3720a4e6dea3238cd0bd9213f1577caa8dc4c365f5eb07ab6c1c37aabadbf6b085b9b12d34dcd7cdfbbf0dd64c82fd8aff70717d8bccfc8c51edfb00205e9cff139bbd57bab49da2a46de1a90ece6b30e0bc0335c33d0ba9d39be4de6df37c3cf53a3309116ab1fd2bac4fc2db32d91b135b039b5a60a5f4721db40680dbb01c00d31a1a8766f2009333e2b104113ea31edd02067ca54d339446fbbc9fedb72876e5d1d976dd54b0c55fc7616cc4771209940fd427a54116468920a4dbcbf83ad64eab91693c8fce33bc53448f7a4ab074a45d856719627d59887c880c4a9fea6781c0e8812c6c0028ea67e5822fe4bd55662c8c42a1755615170899d2b07dea340d8be1f15cd35ee1c455a8f69de50cb68b830ec9875b1c284ddfd7040f96a71c30512049de21cde11090ea821716295ba8e9b1fdc487f8ad72b8002b98fad0f8652da9a87e1c00def2d18665d2935a0bedb07fad915e4b05a3839f6e7f359e3af68184d0951400c9ec8bb6bb74834270225a2cb529943ffb4b6170fd0420d5f2737fdc93e522f11934743988c901f0e0c1f0f883ae566397f923104a45e8d3faaf2ab69d42b42bf3394a11f973a650fdffa5e493c3fea9293cadccd805e858c1833fda0f0e4d3309403da286f2c828542183210b5959b8ab2f5831e6416f3837e6c498871c3bfbabdf564e65251902074cda7e247426729bc4c3ffd57c51c70870a77ae329b9724848b6c7a79a0efcf3c810155f2d45b27ae68868004c880e899abe19c177ffd074e38ca7518ff659ed3e364d284185a11c475ca9a6b031a97e1e02d96f0d81037f1ca82889a806017480568e15d760419be7ee0a4910e7b879082eec16173c3ec2fd56713ea8860798e94aab4cd0f551fea1b6a162d2d88a1825048ab187121d0f29eba0141b6f357cb5ed2ff77ccb67b1b5120fe44989509bf589ab4b30d2c825359ac4d94993dc0d8eb2ec06101dfdbf2080d7423fc7f205a6191ce71cba784db2541e0579c798f6d9a045820ac325356fbdcad8f5a6ecb44047b354533d15ce984ae8c6bdcb68720d38c09cb815d8df9300d0fdac9ce5b6e5973a66c3976c8fa0da2e3e1f5e76afe8627b7db2d0994fc7cc9ff6bd4e130bae6bdafdbd389e7b9625ea488cde70c5dd675c5fdcb526f623dd47c18fa13c1fb55eb61711ec19b06e8c3142535fb3a92a49e655f1ee01856c21853bfc10987e7334d481a0e4a94ff42acadf333436138c8e3d0906b01704ed03b7346775844eb9e84fd718e4fd60e21a988b0ae101603ec0da7cf55cac587e63f55da35175b2548512f3816ba7fe892f9299b98d12c69b40567692076e40f3392398ebb2e9142f810c76d72f7e129e457bae0ac00362ff2f9744033aadc9abefb38fcfc8859abb71a10ade4a402f8cd232225d3261212014f991192aa0e892e59bcd31fa875c9d74a7774deff520acd0064f2ef25cb90a5f798ed2cd11241db538ca149db795f485d9573f385f0b71fa306e2444eb55f1aaa21ffd5bdbd15d6edf3fa85af377cc0b783bfcabdaffe199ebd249aaa631543e3adc8acaf8919230f72001de6cd1f0751116bd976db8e98ee4156052971c3026adbdbf2fa714a5ec36a1a9ef9494f301def2ed3cbf153ae4938f912b6be20ce8f162275d59f6664594639b0e9a90150a6a3a856242fcb7f1eac4212455f04174bd543acac1453d1ae5cc1c0c064336a9269401c7e669e409486bb1b2c11955c5a860d6869227746798410bed3a2fc27e9ab480a8309252e8f570571b70d15b28ca08c6eb309da9298179046f747f87bee943ea2ac7c788231462d87f49858252dfcd219dd8c22bb957d2eacd74b56f39418f5ecb06ceef6468db1952b283dfdeffc54199a76f03de2f0b083b5763061ffe9f1f3f55dbc3cec3a55ee57bfbddf8fb7e1eabd50ee4f492ea2eb60b0f06d7078617c8e54d0ed674ac42a2a851a60d21d0d0cb2764933befd223ff1d6837a0e374fee24e2abe86012c9a9c28f567582d9bd71cc834b542f0e2d25243eaf5e0dfff7ff8fbcac8f1d009443ef80d6d2697802f49659c97540d33855de9cd257bfebb9c24d7e96161dbec31adcf49c1e9074d2defd063c4053b67e980fbc7ad2125fb2813c1b36b3c21265a5a8d9103421af9abdd590ac36f3e52ee6728325d6cbe8deb935f0bf0f16d456e72cc27837707c401894cda429579deb999d6581398ba8de1186d9426345d65e018a3a2131c1fe0c4835aecb06a4357f0671e85118a09edf4b4421e5d7c1da94e398827a4709ca66166934eab4e8f18dc39950dfee7d5d85d9190ec65db85dbf83ae628dea0a816763c6ca4e6154e2e7ec9bf8a578c4da78f294a1a5d8a9059b0e33597c23409c77a2d2f6a804da12a9b2251d71864a24acf832cb00f14c28450dd4a9d22aa136e972599844cecece27df57f18a4c25da34c6931d08741a38f82ee457872a9d54b9a28188db38223336e45856cbf396461981314a9d4c47d02542ad427770362ca3f152a8e5f8672270d8d64164bbf1685fa367ed44bca639e0a7c180ab7757417180979bd431fd62afc30f23255c75ccbf04c67af9212f8654d646d4b45aa16d15d876390df58f3d3687ac51b750d361c740ed9bc803cf6b0ae07a8ebf71e6497032283d9beb841ca84468d4e7f50c762fdfd560c71985cd215561b7456135d56abd9456413e87f11fc1d0026d00e41b735ec69ba733fd16008fb3d96c83a7678016dbba28a2b2d7d273ebefd77c03423bda3df835a7e9a6e8affc8d2481b9fac2a34f26467722bb0b2db34db7c1fabe5eeb522c011ee375f4888196629691dd36dffd1a662a4f316b3db0e0f01b450b133a442f36019ffb41f871c9c9c0d9e05061af7cf67485a3c2747947dca028e2acb96779940d989a28f2c4279083c5ee0902400158cc52d7d24722e1aa63dc6230c211692aec2b3ff9a42f53364887320112f34016edc7ccef6eb0e484f1f02ac9fb9850abd5cbab44289c8d7acd61a0bca899390b78df2ffe473eeeff426c7ff83cefcf8b098a23a7edfa711145abafc6d9867245be8d7445593ab4e547468561a4072484c16573e2e3a37f8b0e1e6731c2c8e3609d452077b6e174fd3507f51c7e1b3b51f486f5a79a1555650b99e746813ebb9f848f4ea633c769f1074410dc7735338fcd5475902a8ebc1cb2c8c16104f62ca1af77bff51f26f4c139db20790fc1a5b28d2f9fa19a6281d947b1b92c43e16b514e25415071a77ac5f48e38f75cd84c9c267ae5d23adeb241df04e25fd698111a3cdd03612e8ec4aecdcee30106bfda00976f90ce66b3f7817ab77e1d10a078e6bfe868d2999d26dfd17db5ca688ac0107fdf5b50f006052ae1f1726effa077ddd8e9e0b5630b97d9967bc876951d6ffec00b18d6d1da031a77d5a27145bc69a70682eaf8ea1597d777b243d5739787cf43447b6256472ca9255b0d7cb81dc98ddafa92fd12f6bd2be2482f2aea846cb92f7531ca5b8cdce869187228fd0735ee110543497a7e4c47ef58883940854124f60a4a6e51c2ad68be715ea3865cbf9035d2366d08e52289e6c97aebd33d5aa618aeca5be01b1b7cdaba2ff45a376151a1f8254f9fb1881d57a69bbaddf56855851a3559867c531297d00fc5283cc3335d273ce934720e7e8d678eb6f51c3ba83aeeaa9a31dc0cd52f4d154684535ff9014837e1c2f3c3c191fd4ead231bbd4981ec0191969b603456af41b58c7cd917d512286e7d38a795d07a46ff1ecb1d82f9e49bfa176de4fdf4e442c51670613c75c4b28ff62f0d593798f9dc1e798f32192f835f9a7ce2f7c7018e38241fae4dd208ea312e8e2378992468e1c08de553efb3d0c3194ec14fcca74f710c66dfa6a47a5de4d9cf12b5f9109e752c522baecf5d8ae53b275a689b677873b4ce1f2b7ab61454e30d8c1051a4715f40b2ab45771d5870520ddd535da54026dbe1256e17b3978382928cfb266867852cd64168ba06b240952d2d1cc73d5b41ef410684b248db980f17916845643e74b2c65343e04b90991bb03fb01539fdfdee24671f23f6aeae3f3792f0267ee5fcc88a30ad71e93eef8f3e72e6aac57bbea24cd44d2addb78f3a0f34f3417df6add61e19e7418c26ee38926b34a12ff9fdc82d5ae9d12cb3f1a1fb241502832aff7049ee766fae4682801e44b3d5e33c11c9b4a9006d236e2d1f95b4e2c426d9396a4d3145321b6aec98f9fc1c4c5a54c6a16fc12e5a6e7dc2d82cc5575faaeba3ae735f073fa969a9caa1c104621354d6eefc68428541d76f3c4475fdeb5c098eccd3f9467ceb906a5892c39f574dea72f8b5aeb2ba152c9a688436825a6786baf542401575e50c533cc409185bd9a0e4c26e401842323d942542b618d3c372a234f4e6bb31043707cd23bf5fb85bb8c17ce46ddf9b65182764a8093dd1485cfddd4ddc116c1ebe93b1f9643eeaf21ece31634e59f529de85a73bad0a6310a22b1925bb0f389998425c748059597c16527e176218e001466e70f0fb1d2596a0a3afcae2404627360c9e4b5bb19eb47b59c59a5505a9204900ef6da00a753e9d82a086fb138cfb77e51b35103e665d48bbd19b6afc26beefe3d7ac146c32c51ef44e58028d62f43aac4870ecab1e6ba90557d34cbb832a7abd35b3dfe66d2e896f220adb4cadb2cf75a8228a642b81c92d83e923a6438d744aa57cfee8fb5bfce3247ecd0e104775ab1271ee915669f5615332c3be56a9af47985a6d19adca025fa9125a36100fbb2b301648d9ae5813724e91400933d407ec31c7a11a248dbe0c812dc4873b62f9e6a27b169d797db1418aa4cbcd794cf76c11cca62bf461104e54ddc4855f2b08cd692779046769bc222b45df9a94a328e672e7d2178f42cbb14c83af212db476d96dcc7312d0c1e60e1f445410eca637995f5be23daaf79216926c04fddcd6c6018adbb1902428b6205c2f3f49106704d4df71dcbfbe8143bfebf82b46648cf9ad116d1cdc8bb36425f01a56b9ec7b44f801c1ad0a625682d0ebc152a44240c0cfa544b34880dcce4ec7f0739aff8a75a19bec0f2c5035e1253d7280407c0b1499b9c0838e318f80346d1840dffb946bc3d842a08e3886aa220c44bb9a6bf93148fbfb306066e5bc9ce8d268316319a48c53aa93c5decba814a6973e03aafd73946870f51e6ce60b911ab8558710b4c016c9b36c59f2952d6c40313661afbd930486536ccecfdd5c4c7a9bb3bf7e9ab50bb06971e1f8692d80049c0003e448a7a4dd54fcf5384b021ea8f979820cad5ab4e45fe985470597ca62265a1b8c9c762b7d99034df726e723efd7bff348697dad417c502c4ccd826aba65cf4f3d21f802549eff11cdd323462cee1d1b37f1a1b31c0c414ea9c3cb87ac5fd56eb76fe61ffae912edeaab6b9505d1a6c70d4f8993a2e7f39375eb9cd6643a8b3cbf5cedd1b4f90e9a15ff7f9e408b5085d6046fe6c7a75b9f8030e4b77ac6404bbc0f88c3595f3a1f8635814077a0f24e0d995e7ba7c672a76296ee14f09c2b0898a2a48dc6fe394fecc05e01614f16dd4dc266fd94e28eea82f6c3dcd459d8f5d3973d6d34b110a0ae2f2398d2928af871bf24a1b4e0887d17f69e6964e6aa2a396cd5ae83fc78ac108d023a57d71227de8aecf3bc94e640a07de893816c4f88ebc52b25ee09d63ef02315b261d48fe64b578d556863d5575baa120c6bc52d90674da1f124ec5dfe4b72ecd219ae2e09bce93d17bba325026d2cfcfc8c53d139cc3474a7a2261aae943236ac7d4d1ba6d61941d991aabf0922a2f3c7f2be4e3188618872e274e8f38988af082e208952fe15548b45dafdda87c44a9db7ad422c0961970431efcec1e08c598e296052660f1e63996dbc61ea9e5fe26ef8ec8b2856dcd28d83e9969489f469f670e7e4790b0a8ae3f1698d58f85866318ee34c8fafef00fdd6b650ff04513551d6dbb8f648b728822038cd6cb6675578badd102dade4259af4066382434d9bcad09a98c4b9779038750f2b63a4fe1150c67caff72cd108251ebf4221dd4ad4db87b9e73456d15828741f92664a7ee5812c9bbb682d407ac8a1048a4c27b3ecf1463d46c6a640db23da8595d1802b291b4b8985841ec3aea54dd7a333c6675fafd9b45b70db074cf4e8bde6fc04f33f096d159db6d638be48f551e77e3f32276e951c1db19a1f5a3c15411b948ad920483897f36c4a1a40529372f16abcb06376f405b3992ce0aeef9d9dd792d9ff8b530d41d7b9365844aee501f488f9d69b307b52c3efbb2dc0b0c1d3e93d8daf91c2a4707d3fff3f84108e97705301d14fa2b90fcfa7fdc1613d844b8164293c79a3af3736047a7e4feab7acfd7cbca65ba2d11ad24ab2674ddbe3a3c306834a3126286d2a00d9a8135ea1162ba0b56ea314cb4bea794e9f25aa50f444bd3b2746dcb5b181a39ac1a83fe2c69bdbfe29803816dd2795cb797dd043802b7548cd26dd38d2ed5a9c9ff96ea22e308d867c1385d2534200b4cf1ef94be92cdfcb0245b4a1ad934819474159dbbea6914e73bad0a143f49235688241091bdf35e6a0c4adebcdce4b0f17073c80efffa527ba2422da28c02743b96a59265728579dc132e74b6f3daf3ac8abc5ed625cdfb534cf39a385e989f46bf4b8adb0b6901703707fb583c526722012083a93bc9d0dd966dea234477b4b7ce0215c8bf0921a4f4f776cd2217dee3ed59aecc2a7b15a8bd934580847f9e7959307e421fc2e4935530cf31caae4058d6c7fe63dab8d91e55f6a22a4fa1f3b98789ec0d6e1d48af9e79634f44151072959c4a895c24f2b1c502aa5f23ee6c42357dd2ebd53f8549f9799cade70afb353bcdf2e206bc779664946a63b99fa88699daa1303a662c4c9af94a6ac95371841e0a7b8eb7e775564a324c150abba4130486044ddddca6d5aa72fcbde4a1257d0c0a0cc2c1800b2f880bd624f51b26493f48f16bc55db419bf34ff6dc1470b4853c915f37c668576fabb550bf8f699fb6feb2acf142c20dcfa5e7335fa5e827e39e3666d113878a88c79167b9b0fd53b9c2786a3a8fbac46dd042112f1058ed028b0b6c70454c5932b66b06ab2b24c51909fea855bba985ca213846a6c8197f01de124a0544c9ae0287ed43f84ee622ccada9e0750b572fa76db26af8c0f54d592ba04f1efd854ecd736518c399ae0806e715b8f76225a8366756dcb9135f8c7d55df650dfe8868e466a270c9388a6a1a378368fd11685631b28fdf8c721172b49427ce1a120caff4fa74c7807818482fe022d3cc045398f13013821e9a4801c7d4d5c29ae832b65be088e9a3cbac54e7344bb9cdab27c0ed98cabab9494460f666288018a0bbdb06dddcf15492a9c7fe40d8cb4d52c7c8b77893a39938ecb2f3ab2dada0b485451a71c9f99a02ac254ee18bc001ed1131f8c2bccdf4498d8187af269ad09312879020cafe12a3f23cca3ea158f542259731ef949f3b748bec775717d34026642b69f348a7c6726d015b0d9ea6f4ddd99bc4fb2f860124eb67278ed8a3a5d2e785bf7c988e2ff8cedf5b2106ab511b1d98c725a584e60cf2adbc5a66b7bca963a2b50dbd4fc984b13933b305ae1a38dc7bfb651308142ded338815437c74802b02067506845b50e88ac74a0b3c67bdcfdc7d59750a7434d62dc66de16290cac9f54d677dd40c405db94778eb0b29cf094c2998c6376ae4547ff0fbc217a24cf879784f06496bf0012af1bf6ea77afc6a64336acb06c596822c5f67a7b47be46c2697019cf6cd387e3b1ac77355d192c6fb826c95b54f6347eac14d067b16c902ee0685c4ad282952480ab954b78de6250ebca5773474075572d644ce052d15796b5e9eddc9f03b984d84f239b71b45a5906f78cbd1526b013cf9185a7002729a7d1523dd851814d33fd00b43d4d7ff3da5ae80212f5d9e38db799bfda86ae60252da35b0446674224220ef7e2c9c3508481f72309bec171f576cdf7db6fbad7c0935f75a69ee4a6eb3081b886e5dd64b885851778a43fce52717736864b4cdefb0f6e04262384a7ccbc015c963dffbf966429f3252be50ad0ea4a7f0c7a14a965a74f23b28fce0f65dc4590349d9b3703f947e0cd7ad2f30236cbc3885806051131fdfa94c06fe157923be70c20200bfdcee146c10af2c155c6cca1fd9dcb89e9d44c54762e3eedfdfefa3c60629752505d01e61479306d7c066cfc29d345706517cf7b293a8f6a3728651c2377146047ecce45f4d204dc8ff819780287c8f8718cf6e58f7187827850d9273527462307598596488015d388a4bb097e5b1c3a3dcaf1ad0d0615e78a27673c77dc759e17057e0884020995ec5afb2f5f67dc6faf3062885527bbfd'
tb.