cnumpy.core.multiarray
_reconstruct
p1
(ctabular.tab
tabarray
p2
(I0
tS'b'
tRp3
(I1
(I660
tcnumpy
dtype
p4
(S'S40'
I0
I1
tRp5
(I3
S'|'
NNNI40
I1
I0
tbI00
S'7d6a2f0816d882519106f31a15281988f95f1cc02cc7798c5acc991a42da61555b4eb84e67fb25494306d808fa5685a5302e42e81ca6cd22edc5a02000da6f433009aa499ccf6b9ea4dd2ea06f4a2fe9390b578ea232c9ba3fafdec8d1f6e992b8d79a85d09120a948e3175c382b23cf70a57490e22e4b3ad8beda6ce0d1f38f6bbcb6893b7983fea5bcc6de2df653eff92e62eb5958fb57220ddf85febf24381a00a7b5c4736255a087b5ac39e0eaaf9119446d61fda054b9154020ca7787a9d60fbd79692befdc07dd3700ea189baf52d82090437317c837e3069e0231a731b95bc765b6a7f142d7809db987f3603f5351750dfbf5222d35744b3ffb0e36202e3455c02b915299235e3a15a2838e019763e1a99c3c68f10381e4856e94d36a7b73016c75a2cc0c2192de10f4c3b5465f23ae9d7d9bc171eb1a984239789a6c3bff9934d63e434e2a2095ece9b647bf43bd111e1756a51aa88926b9217d9bd28e5bb63b9a56f495cf29ce8cf574d0d85edbb8785348d546ad2006e8deac6b8b0de4646e56b186a1322e1625eee64c2b0f5ad9fd82c0d7380f47de92e09510c28d7c849806916a7c2e1f71b736b92f0afd5393a4b7d06679d0be10df0c38a13951b393c2f0a7be8dc07d343e84969ef5ccfa570b867578d35b2b68583746024b7cc9559448aa1113b17fa0d2c7f9ac2b8afd8577bba85682563c23d7fa61f0138e6b84102aa8d81772ab4ea8c2a27a3622904a8fe22afbec436bc8ebc108f6cebfd816dfc48c6403f702f048ef6c4044d2b88eb87f2017eecb92cc1a80adfb2a37b3d53a11e13ba5ba17fb7dedae4eef88a86893739d4c28365d1bcefcda3f126c2b4bd54b5d32954fec21b31129b502189e2384953b8026987372a14803c779ab2cf0eb1f9d4a301331bd694d7f5bb667a9153f17fdf8db293f89e2162f2b4042186ae28a00dd09de09258a7ddb7cc8bf768b46f99b5d805a6417d58b64e5281476f6efbb09614179edd83785f751d79b995ebb1cc74d1cc66b60cb62458f8ad42d14e0d569ed6479faf3bcf2eeb0935291f35920c9657b468e45d17c50fe2571743dd3762681baa8ea6ac723231d2d09173658cb64661de849da222e47a4c6fd3688ae2de4a086d65bb713bdef1425da9db4056ad9abf93c50b1c6d19e5a36dc7f0a2089f641dfb421abb34648167b55cf28b36101cd76ae53bbea39a6728eca4e32566888ea43134793ca14d1a09491ec01ebb79f077e379bfc9e6fb3cd37cc73c679d38c6b51dbc38095c8c2ad64bce48b659db797355efa3de6ed758d13bc124fbc2d0f5e02354fc812278dc21d3cdbdf876299509387b19c20451e57d332dd1ec5266ef6eea4bc8fd29464f296d4b8d3e63c43bcad8f258ea3760d2791f0520a65cd0c71f306b6d517a61df74973156bfa314f5e1db2757a6f0678b82258268692ee69e0d5dd9370669c54646d70d8e39b06d0ce63642a0a4c876e249dee66251a14c83d0143d1745f809bbd12b982f0f984ca5c32366dc4f108ed37d52e52a7a6cfcaf1827dfbddd49607cc1f5e4d093da3d6a6e355eaf5659cb4f52e8c1899fbb01ed8244121e7f40682ff48e09df9924f9118d2c642e424d792f9e009d4480616866944bb9e35d4b49818fbf9df0c518eecf907dcdfa778e6f7240ec61d3d17e185b3514c12256d5cebd5a0ef11062a672d2caa897f14fef7c737a1b6ad1124853b437df7e7aefc47867e900f1ee9240f2d915e53b60a81401868027d6c2239f321d453b1d57ccd2349aad66464b7e06dd1f76888655cc53fc907c4f6203109b13e343937adfaa5d39dcd7ba6a1a072277b319dc8b8bae4466f9a893581cf7b54220e1990392a0d65dcb1542e49b7bd07cefa4dc3bcba8448f0deab01d0fce9b8b9041b43216312dab4f49b8c08e74ee08575c4d488139b0afed548edb6d0e3a213ff8252042447e7d9d814b3b8583ad2d64aa48550d95da13a135e1d9cffe189d0d237c8a993e58046833bb85cef7dc63b15823abc3dbddb517376b45b9ba8008276243b005a0c8efd8024f8cdd908bee943fca4399bbf76baf6135379e8676becfa5e64a86232999a2b986725f159e87d47606469e3dc03d3f81c09c888c85859811c630629e90f9c679eecfd7c2348c48b765512e0263c87113e3e3fa496e2aa082abba3b8b50656ca07fad19234a54d8072420520eb3d83f7ae98ef36d86afb83732eb1fce708c51a8008d1a8d99a887c2d142a735cdc604cc08f1dbdebe8306adc400137afc5cf7a4c3d77d1a5782ed15be65099460055a78c96684e24d7d2b891cab0dad66a478238776337ec15d068d5e5014c5cab55c4ef96966aaf6e8cc5bb1d55298351698167ce0b3ee891b0278eb419aae81741fb511c1d8044152bc3eca8755005deb1d521c3ab463cfa46ea62a2f6bff8548d168823b746ad9a37163bd035937e8f2f0a2a0493a16db01588e53faa90171909a32daa689b87d19d0a220d2b9fd1273ab6c21f09871e96c0d7b4f17d917e0ee4c1e59359c239a6c908d5a532f1959ccd27a54ec89446b21ca47b817363e2b3eaee5f64df421f4f9e0154e3c485267de8c393e902e57076c6a7392401c2b2f9c0375293a8d46feb77a0966095383265deb12b418a1b752c6138c1ae800e01e82a24f1360e75b3a6b2a12c5c2698a91860295540148f1e4e3fb3adf2b2ac40180a24a9f0e02efce52026a2919a2fb06d42504165490d0e3701a4c8212ef10f3a483d3964ec377e667157e1089704c1d494db09c8a9c0fe8d29f15a8871772d0f99c76a090e258dd1cd372d4ac606e0518d670b6fb983f5891022a3a210aa743d82f0ec73761f9c9db0a38f2856360c25fc142acb17bbec63da71af09f86b53142d1cad0692b102102d275065773bad903d09d57bb2f27789cbbf42a0f0578de77605779bbd77a780f65f0159f41ff5c3fb7467828bd3c1c7363869d3cdcc88533934776c4b71bd3629459e0eb96c3568162368fbc9098fa198b9ea989cdc000505e196b3141c2b6b58e63d07db0d6204e3a6bb97ead105f374b07018d937cd088916bf50464a9d3771945a60fa3fc30c3873714095ddb90b284c33ad9e1b8b7dc68dfb2cdc21202139fddcc7bf0e06cb1819e5bbb6c5ae1e3b6508ff6dbef0ecb4f247e49bbf4e6c8889a191b27a899a93a1f78e684ff656411285cc13a6f996984eef8fec9aa7c869ac9352d17503db4d505f381a1277711414be8fbc4c6d0c9a74aab986f4144c7e93608baee485a53ff3230babf2e0229250966c9ca7ed4df476e3e1281f53c6866450e2b654bdd1ebeee348bee0a639316d92ce09f05cbf20aa1e72c15a46d1bef2fee1c6dcd3110b6bee4275d08ecc9e62a86f701ebddb2b08cb277deea23a54e196b88c020cb81ed9eefd855b8d43fcca65228d00ebc8d4b921c80e952374c5b86522676bf832f31effd8c3cab3e72544a94109dc868bbeff8729584c69fbafe0e329acba93477517678774b8ba8d38e3aa4c3e8dc62ece5d25f47f467970de6410cc957c9748552aa41ab4df4d0825c478902e1f028998f7e817c746332e16fb8cbd31eac05cfdbb439b87b199efcfa105a41ed34386c6bb27cad2b64dab7d2fae111c2aeab73e2fd7e58e38b3675831dba14d2351718a5c22835fc8abf37333f119848f666ee221e9cf6f3b567b53e6b186ec8ba66db381076416c9266667180da7652fda0a032ecfc34cb5952f03a320533593e19338787b4946c60da7057563425018d731bbfaf510f38f0ad9c5fbb6cfca96dfd5c111383936373bf5346c9047eee3c70d0b70503802759d1af06b439ad70499d6e642e37dde1eea81add9e6136e721f3ea16151c94b80f01b8f0ed66636a2f8a23cc942bc16446d75081f20dec1ae6dc1687e83ba854223236423659036b15c6887c65d654f82afa5d6f19b9c2d97dc85138a199fbb1d57585da4e1bef62aaedc554871198fe04f68c1c6c744d17e1a7a1832d47499040e1f97ca8d75d812eb4806510ac413240fa7dc9a04c7da24ebeb7d7d1a401b56186a9ad9272d355e54b28764a70bbaf10fa7ccbdb15650bc5ce4e5370345003aa8dd66d80328a94c84d2a3f8bbeef0abfce12bf6b43a3aa79870f57237c577bcbdfdf16637fb0d8a3db78eaa8ff70f9aa4eb61f9242db64a1faefd6dfb1ae3dd48b33d858d9b256c78d831e9e68f7cc09181474c1e39ac80441e3e4849ed4b88ff6c986c54b8cd0af57b30d4aaf89db43871f79dafa0c1c7c6f26789934f49f53dfe377bbaaa7cba7324c2095832571e11d0365ce8e6ea507aa688b9f3f215ab74eaac7ba3fc63e9df857658cd425b341447d2a09a3813eeb46f8880cf85abf2dd17535c8d878577f5ca6a60c893eb42fc457812ecf126bab479a3d95eff4f1e0ee31e11752d0d89bc5177100b56c1fb68477875007768699732d87f42fb05a33d27c03ae80cc15fca5871d749b8bdb8e5889cf97bf366103752ec4db8f4ad37fc28c50f0d5e2783c8f9499e3164292f0f636aad4ca341537961265b7dd511f356abb1a67cfae90ce379c1bbb128e5a25679a976f177a1d09cdf5ae5af0a4765f13cab00e70337b13d9d01f6e787d0141b55a908a9cbf0e2fb3f8ff7d444c0bbd0bb2fc4a9da16ae1db1c445303e1b7adf0fca9fc689cf8a885b56e1d26b9b9dc21c5a79d797538136f09e4d68d74b335383c163e4b56d4aeadc5ecc1bdcebf8afbd35105e4215be357997f5009bebeaeae2d6befe9e1389fb572a47043bcc52bdfe452d288bc6bc65a81e44090f4f16222c34afb9a0435c280b139f9160110300e8257dbb638563f626a8bb2a86f2929946ef71f7e29e427752e018cd2d3eb31bd827f8bba8a84ecf0fceb095edf39367dc54bf1d37fe5730b32dab49376f331fd1c4929e6f1f45d98437138217ed81f0476267ece0e58798e339bde01ea7d41471ca6ffa147b35be297f3f9ab1967190302542662731ae8533d22cb3fd9249f6c470cfb051a72f3100f5f9f06210bf1cf46e0b58c438548f7973553facc8b1903b1d7aa88c0a6d3d7cab521aca674970fffdbb794ce8428461f11a18f1265061bce3a5005f838721c2637b4c181732319e53b188e41e2cb7c2e519ec83498bafe786715eb140ce68e238aee43b01bc5a3c783e84cfaa32dd9ef442ae5664167f559ef820fa96042de01787f875af94210bf0b5fa1a07836f106f3b94f84fb443adc6638c273ae83f026e55f53b5b3db51ec24050da06f8df383ad1ac2112e7b59096e5a6a6a4adf8c5577ed9bc8de9be9a6671d1d5538e7d0f5537a29db0d5409756082e76566243856fd2814429e8de5fb0e69048a82d5d6f5b80bf83e110ff4e940754125935c19c86a334a312037f56b1374854da927b7a7794a5be17b2cb5ce69617a463bfd15c827dd64163cd91200b9814a59eb5665f253d2549fd22fcb5fd3fcd8cc44a35a4e62b46ae9e09b418a8d982d8c140668bb4e0775500e20a8e34e2f6c1613e56a9921a37a4295187b6b346ea07be31d777362e13d87253b84bb18bb9677d3be09dd5a5b6b2684c1e315785f4ad22c969669c503e945cd4b9df69e9113c6ab925fba75bc01dc3aa405181d546856d96f8c3879be857fb02f52231b69f909d11c4f7ba89aa0275d52e3061c3b1880c255d0f307bc9ae1e3efe8efa46fdee4b95b83683938aa937931176ca72f620e3ae7e16e5c0fcb53c98a3073b17e48ab6703a67cfa9565ad437729710b810fffbac7d0d259b787d59aa90648d617f77100b52124840d05c750213a3796869fa0d8ef046f593917b86bec5730ad72c5c14b807ece4c93569f5c58a3fda38d0f25c078895fd2ea96bb71e14ae1045a1709dc468dc9beef56fb6db875d63a712ebabbef9e4a2932104d52b0d580deb4443a6b3588921cce4fc283edb5ed5d279414b38b1ee2af041399d3302e2c86041ad4f5d2a1c4769c37eb8bc3ea52c0d78cc06ce72d168f157fb50dfeff5a36dabecc20b50a7caddc8ffc665c9cd84c2e6b0c4481194ee4f7209426bdb3195d47d7ebd459cb23dc038cee5a4a3560514a4e22871b99d88810d70ada6c55882a90b70f17a3c9b8ed7600a69ef4850ad7412dc65c737f0a16671b84c851d03fb150e6bca14973499480df1a4b8efa09cb54ba58d4c5e5663169f6fb3783475ba5bdab976faaddda737b2eae6e8d5a1952e1536b18ec0471d79014a908b9facb721b57f3fd3e6779d114374264a3916c4252433055e3c9b68aab0f2701d2e9e63fe4eeafa55214711959146355dae2c5338083fc4fb9666a367a8438e2a39ff1a1afd89bd900fc502c41014cc152d52eff43be2c51e07397fa9417c048825799969c4fbc4ddfd062923bc787afeb5e19699faa049f2f429a3b9afc7c5c816b53c52519d4fb546047e4a6d9b13fe0d04d06a21961c52ae670f34948aba8930692b1d3845da2206355547c36790211d0735be57668382c529d278721ae21bd8b8d385ed23a4b81de5921ad70f69119dde13336066f37ec202e3db5e84e01468744db4587eefac68fd7405eeca3c0865b6df4403945a1ddb3707a6b7769bb5767c0e62b61afad8712582af18ec5e867d68b5f7e10ffed1914fea953161b6a5685a361db943cfef4885c88c0d39e669ab387365ba7d90c6bb1e3fc93fbc77cf9651d8fab54bff0c65c54765097b29e774b8f06f83d4790114cf4890b0348e3ff2bf94c10013f4a23f876dc5b3247cddef372dc3a6a2a5ab345399197a93a1ee79523ea5c5a8bcc1ed81cd39141d815644d35f0e24be368c3427e0db516c8cf3f71806001c5c4679eacb7d35a8b0faf1a22973a89a3a3240ffb759067bd1e387c93e7ff7f700ad1bd51f539f6572acdfc21ca57eaa5362fe25528546950e3684e4b24c7c5d4373b469c807afca406bf6c71e2a9551e951a5e8dc7cf5f9df7d60388ef7aed7bb3a431f8fa56e2f06a00b26c84fdb7703c84d530989894536aa27fa2567b5014daba68ccc0294c026603ccb179430b67519d293c3aa58072d2d528f5246f63fce1f780c6eebbf4bd8d9ce1a299059fc0865bb6f957b254a3db318ed53d0431e89838596ea2982765b7d76bcd14461605c2b8f967b55bcbad1e4966ce4dd0d7d2584e44297c5013024e5d937c77801e51f05e7b10e63ad098c08773a031fd0ec4a460b832df0047ec30199c045bf031428837b424fb67c1201a45920904209fa1edc07dca69651d669126bceeb011684e54c6a89fc2f8bee791f8f6a4e8ccb107275e76400b79b8465a006c52f1d1b405fb1cc54d49fe4c3b3933ecd169f7eb3f302b38bb6cfe29698c7b147600def44ffca31db7e37a06cc76a6e442cb6fc315131019ff527bcffc5e9112c2ad51df9d557e580e1025bf77a5621e7c43aac0352c0806fd1ee7f429e8ad3dc8b1beec29c616df5f555db4c1db54d0750595074705778e2bf9c778d15cc96222fd2aad2adf01279e2dc9582f000abab8e8813b79c7caae6a722ffd1e063b24ccd2030d8f2f1243a4e6459147f7f731fe1b10818237fe603c074e94b48a1d3dd6a53c37ac250b6015eb9d131599d45d8817d9fd21f807f9fd3fa5c90764a516cf31ee46ea43ec43456141d73232b7b45c225b19b9d4bf0a23c6aabb8a20919fc0392c4da78d5c58a3b64167ac793642a567d70c2c3509834fb810914acefb459c07c0e8ba702dff662a4115121ee6fd2e5f64abbaa950a7e62572bc1070ee11355b2e5a3af026c7e6d7e18fff158a215a6862bd600605390a9ec16c418cde274243cc562cbdc048098746d5150adeb9daf54e1c0bc13c6c4f616789f684341c6649b544edb0a8af063f17c7ddde30a65c75d9953900458946840726aafcd356e9e8bc0303f0a8532f655b2116c63d32facbc60b134eb979531f32c7d1b796de1363a9f6be5f852aa607878b3425a9d962cfddbd81da31a611f65c1498342422d02f78d9423ca83119cabdb281443d06c36e8b02440a52f6bcdac1409c61beaa6ce5c85b78891155e69ad033ae13e78dc4db202c62390634cde1f111957c8b8fa687ce4b1e7e25b8c0afd5b93ccde02942b404677d27814296417bce4bb4733b1fdbb8ac4ab321cf4c3ce31ba5f7a7e1d834a0f046e8febf9f00b2da8c6bfe7b90c663f26de790c8033cd3ea6896f24e0b0bfabd8d42f3b6691775a4ef3c8715c27b7995bc0c88502faa6b408a370ac514f968793f35107d3093d9cbfbd9fa39a9d87ff57df36cdb956c47c277bcf9c8648d712ff5c94fd59caf0441e4cba03e8b7edf7af53496cce74050e6c7400cd2e6ee911c6741b8f83f1f95066aa1a399e0507fe13e49db4b528905f3a267e8327a06343205f160ce2d6d41ca86c37f09283773988aecaec19d1f26f4b79789f2d20c22552094b4e1213dfe5b11769a9450884c6f9d9370ac89c5070d0833ad3e14d464f9eb8f9b8f853e00d734a2753388599e3237b8e8ee36ff90ea13cfc8fcfd80708f60fa17d0ad75fabecaa906104ba020b2b07d31f5f0347c8ad36ff2b9cdd7b8f4e03605e9a8335bd612a1dcc1d0bd4f83470bf8ecd0981fb3267cdc818d18c7429d05d3a677702f59b300fab6756d6e1ac7d1adda455862cf41086bd828ce73da716316ecceaa368d03884c8952c1844fc3d98516bf14773ea17df1fec3473e2108fd2ea8c94662ec16b3fd7c8eaafcd5dff05a8755cca7a073d3dceec5e1cded7e2d3367a85c56a0b3c3f3f3b3362d8092e9ede6fc956ee299194db7564d20401a0ae6abb004ec1d0bb6ee5101ba5fb250ffb0482d55ec136a9229a4db0b9b2cbcedefa655c99df02f0ffe22e373a15d18fdc19242b44ce127e181687f9871fbaa360309c3ae5b52f46b87df706444c1c635556c0b508ba9106ee9ac947202b488a53256d1829365afd3bc76c0602aa1284aaf058b843a94ce1cae9076a487f54311766fb834fb149981311c93fdcc73f41461b57c7a1688ed65fd2ae3b19d44c49fc45961bb69159c1de8649759522fddfd13cc1c9948c7268d590987fbe4afcd1ed9d86de00a968f0d9f17ff0343093a24e2fc2fa53b8e72e5a405863dc9a42e4421257805ea74273b3cb4a35b29070eb7971bf8e26df613ee2f89259eb30ba2fec0373f20255b3158e5da0fc44d36ee5398e5176b3502da000670dc4db22e229036886d43a2ce398eaeabcaa7cf2b294d86f25ef2a558ae5a708c2d375a7f59d3e99ae3b721ad000a3efb235a3a4dd547adb844ad0e1c009664501aeb299e7e382753a1e02c19d5f6504e114629c3744be66e5982bc314967a023054c9a4a18e958c2a9e3dbcb4b1934e7adbf5b95feb14b5ca4507b2ada7003cd70d098795d7871034bed8dbbbaf5e8b663a5a2a9ac4a3c6563eb5986919076fed822b33146116ecb86d7b6e12a97f4625ca4783fb85709940829f9f1e67e975530d8c36cf1c30baadc5593affb8c6c06d2f3cc3959c479a989de71053e3cfb34a53f6acdfdef6360827aa9935dc0a4bed9ad8b1d379b50a7e3ea4af3176b687b298c6156a54cdaa9f451bfb18487b0b960ef1e0959276130db174092b550baad596f3d1d7a50c31a898b00edff951f3cd4279080e36281b16074485f2291b8991e7cc5f1e8b31c366df618f46af5871edf6b70563b6e1a6b1d918c7a1e4c6f81184ba28c8639efcb46adfe972c03bfaa732437c918dcaeeee1945dae30c8fbc0709991dd32e964d6ff1650bbd3cac75adee3147bebd2a9b76889ecdb50a3e0789126a6974aa7bcee6308ce91a12fde212a13fb2f3ba05be278dce155646f5efbabe095dcf84b3107bf7df49ac352c251e2835135ca0aafe0b24fc7abdbac5c7af93e3357ac1f27e8376059d6735447954a4bbeaad3eadaf8bcd7dadce430d11f1f1e29c44225c1e42898a5c146e77cec46c93d9981f6411b405f0d41362e70da2068b691adcb851925614d17e7f9ad338cfcf3a256dc79d91f28c66b000f57f322e082af966a829bdf8f9f9038d0978b0ad80e9cc10b5e4512b336bf5d0e06e7c717f805e70342ffdf23f9fcfb491c511187fe778c66e8829695a3bf88055bdcee4d21966956ca9e02991dd6e204d7df0a8236b7c36be074896d2b5fc11f2137551e51c736e8aa6f8351f41f2aa89f330f0a2e61816709cac46162e5948ce8fb43803434c6bd401f4a2b43d25362e9c32dc5f5dc688c39a1ada0149388fc7f2e1f785b91bef764684d35f8b6cde42057a3e402d1cce4bf3c26eca86b588991e8f57b2b0ea7134149551b9ec4897f147a7aa1d3b5ee100c2036b36967275756ec12105c9a08c7b66867f406224d82d1bf1fa161e9fa0eb1a8367da29ef5896f0998341259ba54674f9ba63895508f751e30ed6b05728a7499052c5f44a0919ded614f006d40b0c3f754c5f1319335064fe918ee6f9ecd731e419ae73963cb846e3a3d82cc279869972039582d3f165a21bdee6ff2a55a0c04a0d31e138d8efe36c564fcdcc12f42f11c03cdb942571f27969ee3ad79dffa6dbc683f8d45b5090f4769cca0a85e222b6d665a67b45d7b6008fe04be24e7a29e888357d0859ddf3919d046935a8efa2c764d69253349bfed1ced1951fe5484b96eb86d236a51ed417f3b4eed23d981313245b19143cd986672f3a3a58dd1ddcc898bb9c5d863dad75b87a9d8a1431dd731ee52f19f5757c5c6c5e9d03f7de4f2a4ea8e03c9a06dd440fab2ff1c1349893e2078b8180d3632d25f3bfa0a3aa1873578d6c08322739972b8eaa22bdcf1bfc3bf8e308e8e72d93935ee2389f24d04140859c95de906a4b0569812a5efb376c8db81f1df1713be7beff14e36dc3b3324a0844edbd4d6807ff1317fd5dc92310b5191f0eeb5edb85d018b4c84b8b3fe88e48d4b78f69886573f4cc334dbee1b715817bea8ee44ab64026114b2e06c462a4ff7a4728cb282baf9a75bb5335e1a083891a9204e3aed0af632d517867921927f5897f7c16deaa57fd5f1f8ed3b96d6ebc7ddf93c9f4f305f3bfaaed3865168cb3c7b8faa7dc1fd79eb480f25b141ccb2566facc64f3154bfef40ca621a8ed38a21806f1929ac92c6663b293f093fb74ed4bf2f2dd90dfaf0cddfc17874929e49d9eb5f6d7e34fbb67c5223f23714095d3701377bd53ac2372c6942a71567467d9d6e898538e29db0fb62780757c7a63da21ce8b6d3d28d42abfd9b81c7905247c71138d926caa7870620d68384c7664401af76a592465790477c87611002e76636ed8958cbae7450b07ca0d2a06646aeb9b42ea840cc73f2025f82c2415970284bf0e406f1718dd9f2d17246db663a79c310a154d0ad398b835f6925ca6f4c48b8318fbf8177fed0ac6b9e28c1315727b64f635169e8079f62acefd71c23ad25e8b2ed5f94d63b52c73ff14a1b793556bf6962aa13cee7dffeafae6ed49405e9683d08db260d587e4a7faa5eff849ebafa76a9a078ef36398cac13b5385701790eafabecb615c09b6abbc17d772e8060e4a7786e4a3753d4bdb8d2921e7d346f15b0b9134fc5e4c3a0db7fba54821ace012dda1cdbf92482df15e3071338242c7d7db6cfa7f6cfe24c212424c224400e47fa512e6a7c0baa3334a79528fcfb4c239cbec4b3dee78c22b2c0823bada89a037c6335f1598405b2df866ca25457eee168b336c4b3531bdc2eab76328d6534ae67d1a81081e9ab080a76cd9231330001435d804798ddced56f80178556e3c2bf3c8f800d5f46bdd8ce61d3a70bf29b797c0eda5c19b9b124c62e9503edc4686a2d52d288834ce16801f1cfeed41b7550073dd91dc4c5a9b077fe9274a847b1cec5001bfa63483dc777c4983e9cf695a469f2fa7915682233da5bec8e6a6854262e3b41af30dfec5ff4e39e885a149f2bf4f41798ef34400c0b3e00dd68d977309718d6c79a1ccbd7dc2ae0b551e7a836fae86075d2950b973ca1f807338bd022aa949047b5a53ab720eace070f42cb1f2c2c19dc9f209f47848196f5839a4865b5ca744e2197bc52e07e1aa19fe1de75233a55d729c5a1c54f91e7f3ffdef2ab2ea9de53ba692a2f027af439c65bcb145a4f6a48b3279b6d42e55b8a19e0f56042b105de0964bb50c9d38583441cc69dbae7f098dc1a75ad1fdf870ace13e7b7e1e32cbaf4d13ceec53ea4bd7043d26b5f04138db6e0a051b15422e3f84f278d44b6941e8ddf45450b301cc30bbf32fc6297270f63a31f5de10bc3cba061b34b7afaa71ba08fb83adaa34c0c8e62f86aa89d19c3a44df566d1d5a853eb5674c6cc2970c9c5a34e301649a2702f03dac1b9b5de1370c6b0095bf466a177f678784716540bcf3b002f81cf9d8500b1068eac54c699b433f56e58a6c28ed9d8d52ab29232bb18cba107851fea91937a3f77855e45993cea2a222c1f16f6fffaf5acc85d84ca9dc295a95ccff1364d891ec62fd0afce71cf4946b9eb335d4f64a44e2001ee3e4eec606660e79dd02d07945df7617d22345516f977ddd82a3a0a8703aa66a2f7bbc6b96150810b71493727026a16142961810c6df05643021bd452f28da414baa76bb7cf46875ed8dce3164b722fe8fe5245d940e4f1fd70422b93c30d2bf988e38707be4f2239ea1cd071eb9c1611b16f32d0ba828b94ddd1a0a84f50983bf76d4a5165b1eff0295b48840dc4a5ccdff1f146b086567b7ff6cf171ffa315ac127b51b8ceb0a54de36bcffd229db24900159df89519b3b0b4a1687a5f8d93b9bc51cdce4d438a69559a439bb05485e0228ff36872b193a4ffe348d692bab57be6bf0eedcaf4aaa94a92022d38ab2cd321a46e05aa058f43c709417d85845402806583de6a4ac86ed1df9998905206bf01c407bdbf19bd53ebb961b6df5b936b1c7b963cc9927faba38fb6be61ad23a3c75c180e7335d2a5f7dc0d902ca940ea76b577b98d481c6c94587e7514a05d787e18b3de0c90b3b4a471cc51eaf64884ef791bfd1a3b2ee908d89f6f1952bc8eee927d87e610f45b2ce3fa765f2c2e1ff549343ec7b3f0dd8cefa987a15a3931fd848b3eb8cf33ee51f77d93845c248aa003458238e64b038ea61380b1cc7893ca07412853cb67b7d5d74ad3a5fc23aa0fef26d55508bd5888c75cff5bac50836eab36ff5281189e10ea4d6411f8cd9b1fd9840a12284370a2aacd78177d4811101f7427c4927b093ae498212b250823bd682cfaf4c9c0a87cb3d3ccd94d1bb5441f2b178a2adb0900e5ec873143377a7daffb6be779e5b1c33dce51d3cfa8cb0d0bb7410cbe74f798cff759ec9aee555010f4d427eb65c911e9f98b3537e04cddb661a5005728e4c4c574a8b7fede7479d8bf07246e20025dbdd58f2dddaed2bd3f3d347669b72690183f72f7512b36442c8d6a33c4ffc875c71840b8c7dfeb9cfe653b7b981176a3b13e8b415426881a68568b1f1ba76c9ee50fd2e37d77c327c8169b7c4c2d0c69ff5bc18d45d6d81434e5e46f2679120503d0985e7d51b57d04ec95abe3e260006bcf641877912c2d8aa6c80861983f9be871f9494f9e3759ca90123721de68ae46d7b76b82c5022e7652dba1b83037824d7e052eb77a395dac1607f2c9d608f4253372e3f1f1fc36bde4910cfa9bb1912d821df4dc3ff94dc2ee75a0fe79987736791806d606ed280e7f7f205807a66b07ceb112062333f7371022d0401ac432d9e01de46e3d280b3ef3481000115d0dd10c49ead6661433459ae535ab8e5269f664456f7d6359491bb066c526e28d25441a4be31d7d6b8cfb42d8be39f7ce7afa490e410d5071c2188c706279f14c78455fc6b30300d26f5ccd3b7490eb3cbba35a4e872ecd9b2716b166d0aaa76c5a42e7d02b39e5093225cef7054b1e0e5378c493e743fc6a81b775cac3e95e2544cda5f4717b6322939264cf7e69468a54637055775420709e8bcf9ba8dafb16639cea5cfae0f4f4982974d88f23ae2fc72cfc2fa124bae0c97d99b0f78d147387801344f0e08fa2e8d089daa8791ef9107eada0943224d433aee4429d0b5d94589202921824fef01fc7ff2dcb1b380efb5ea9ad897a2ed1d3b167f9c29e02bd0d4c39ecd4a83ae3feab41097d2df17f0b470c5e50dcaa68ff7ce04fbb77f61cdd61e10e0410b1a4b3ba135efd06aefe6fc7c98cb209993c7008e41ff28f5d197a24335d92f71f3b8345a53523f03ae22b4065755e07e4023d51b0cda1746ba91832d6fc02b935c891bd00beebc7ba1eb5a6f03a9a2e8363d78e6f0ebe8c0c745ded345979fd604d91b017e2415ad49082584c72989982ca6e07b21c2ef070fc2f186e8c51a6af3fb708b04a923301a1ef39f385cd43038f939f1273bf47afb8e28472d2214b68f8200b724fa90eae6fdd8f58d4bfb5a04f9a748ac35e1d6164c5a48ea68abaf0b349ee5b701cb9f9eaed6b15f12593509dfc001aff884deeae81445715667efd497cfaf6b03f754f92911a77d6c8ee03a5684c7108d97e451a32e3561660608984f2a8138849822bd097187334c9205835b248785c3e7f24cb7a1459b328ab22f5e52499056a7f2d2ab3f97d2af3330a043fa7a19c833645519d5ef692709813b0864898042ed04ea59960312df0318961134a839def681643905e0f19cf21c24bc2922a8a15cd196feb63ec5718a3ed66511b927eab875358db3ff359217bf98a607b8f59b1d6883af4bba7ddfeebe43ccf40dcf41050afa25ffa8da6a0d3f2daff42eed5076c6aeff6422960aed709f3edd705709ac33a703e9e3eab7a8fbbd2340bd479cfc79a9f66ccbe9625e2a466af04c8fd3cfd6d7d3adbde89b4ddc3a4ebba6dddabf4f67d53fd4d3417410ca874ce83a59c5e1afbeadcd4252232dcd3eff29b5c95f1280e59bf8b7e9645e43ae53450cfcdcf7601065a926fc76877562f3ca7d15431c5592c3f831c9d0d7a5dd54083a503facc11b9ed7812988fb9b4aeef2519b02778c2af715cb3f0110afd967d17dc0364ce598e79433228d08dadd5c6593c5c364adca54d629d37f9b6d434fa239a9700b5ec61e86ebe38df06e751cb8f4e3da07dea753f2fc84cb626f6486a08608ab70298e0d9583b9ff2920a0dcbed8177866d39a261de43185bf6de8576b6f7d8ae2bf63dbb4b8148a37f1acf77365b42a73f23f8f18e48c6c7796c4295d9dfcf48aeb36f6d9d73427409e834f0716eddcc01facae09769d73f82d469bfc22b98c477d3e376ad78cca947e711734315d4c4093e212c779a38dc5038f2b7786898599a7df55872f17e3f9c03298cd6a66d43e97eb2e3127f649b3ce4e0ee1e79c968e24a5db33698b99f5e32dd494ff4455868abe20dc4d0f8824b19b9c3a427f6e54fe583f0db94c0b401453f365b1472fb1d84de3acbc2c826d2df7322b4eb37992e78f095a9d9e2d57410b26a0caeaa2522a776fbdb9eb3f4e1dda84fb76abc38adb2064d6a87ab76d4a461304be3190764da0b010527282a67528cc57f359bd6353aee1e0cedad68657032d0eec94e97a03b28672d01fefbf94cc51cad987456f9cda92a77ee71b953652630dca30ad17fbb96aef1c581d3c82ec19be3eb3cd57042bfe069e99c3d813516f7c8dbdb29c00378966ad2c255306631fbaa79728422428c2022165433c1eb2c1d0c675eb30a0fb92b3e58a7dcac8433a88cbf7afa0bd7a71a4cf07e60b78884a6c97575fbe3ef8419bafa9d4027e21b0edc6693e2f1c193fc71c502938fc4095658c07de3ade70b5a025cd344db168251a292c37541c577f56847c5342f90c74c4cb19b029095922f986909e3e001cff20dbbdd014342c43e3d531455275236c9a0c1bee9f8308fa7c12e931ccf9df5435298a7780e219f1dd87d88323b110a7221fcb33cd525e56cad1716c914a0f0c6c5297110f91c05f9443dea88ed3497e8743b29300e8ab2e9643ff68377375d363fd378ca8eeacb8ff555076da8aef60d5cef6d7372e3ec2d8ab9cb1ceed5c89d60b0bbc9c7b9727c5702af26acd94a54a1ddb29d26bf8d12cfbbe543eaae9e6675919c4c848c634060f645da3e1a9fe5d3b9a5876469c2588a1a27426edb17327f3720f3fce5203017572bf06a2d7b23336c88a09ddeb544acaeb784ccdf8dfdc66f6cda7bb9a22f01901cd20cfdd400d3342dce52a6b338cdf5629e1e6fb686362d3b20bcc147a047eeeec2f366b9f428bd6acc054278bbcb3f4e92e9f8548476b36c610329edba741090016cb3ea75c2e2173b30ef8ecf781cc5150aecfb3cb5c9f2963a00132c89baf5f65a2e0315ee01906e744462de3742127dd459e1bf2d18cf89db088de14ad6cbdd600ff06f4e607425ac3855912bb45afb461418e31698a698c2fdf627913e1d6e7e13123e79e450b5a64ae1d93170136a88afc90c7a8ebb702accd765b73bd5896b2a50f6bc96cef63e013cc0ba021e62cfbdccb89b2ac0235904434348f94a379eb50b28784786757ba5ee3cb6a15583c16ef0293401b2ffbe211e8929b7263660fb1b510dca21fc2b7bae8cb2ad69648ae810092bf68422248a7d6f83ad85afebad014bff67f829509bc6863bb2b5084d05d4b25d62622dfe5601068123e3b1ff2ee85ea7547bbb7239ad5ca1fda8bd6aeb9a72c13c6c974c047a15e9e551c85bbb1c1f64d6258ffb62e105fc73cb90f6c0c04f6abd6d55f4a5de7f43d90ab6f789495f7fee890bda98dddc2bc643cd6d94bcab24fd160bc466987386048b4c409ebad188b271d9bd01c6fd3810f2122bdb680345c428538c194c8ad025bc04d32db0e09d981b13bf73553f4299ed4708c9275c399cd601dc4cfcaceba75cfdfef330f13a03542b9fafa1ac72f7a9debf6564c37d98e1f6713976fbde8b7cdb622cd49f70e26f667d6a5bbfca7fafa448625fc1e1ad5ace3a27af81ac0c5f36f4eb63e297e361cde1fdc3e0ef0b6242705ea295b157922148145214551b2555c0f7cf6bf77f77085d559312a7b79c03c2ae38a3fa43e7cdf5993321615c9401bf008166ef58a702fcb201ffce108653534f61051b72b38cf5c126dd14d11333301c7cd086a27bb6c265bdbd74187f8a9ec6c7eea6ffb136185ee8b14d116e899fdca6a167ad118658cea2761dbf3a25f62600ea07c937b38fd68264a13ada23a16ce2b29adce31fde75c2ed8c4677ce9223494f07278d5460c677c3bbfe701b084cbfea296260e91a806ebe1440534686e410bd415349a0883891959fc021880d97821559fe799700c09dd50b773515442994a29fde6313b913d6615c0ded3aa8cc6a9c5cbde72798f00803fee59bb37af3bd36d76c941c72771eb2723c0120f4df5180db2bf2921bcfccda517b7a7e1838a394ca83dfc0999753730266a1b20315b27563994f43c94f5f90a0042d1e572ce787358485d5800455f3ed42485e8274e9c69e18686983a3d1ea61efab72c2251c678843271e0878f6d1f9e3af3c611bc18f63916e0f2ab0b6fdee1c9db6917357bc663c38651c5a55987857078d94aa3b693a36cb65429f6f1e4b81085fb0d2ad4c4b6cbc81b97e98275c0c592d919dde1717bfa02d1b8fefef331a048be8f8b0db52b76d30edbdafc92c5baa853eb7d0bcfa1ce8d856ecdd8a14c6be08a476a8aa21067a8879a7c4cb0b32f8de5cde9ea6726f5ae03dd531d622447679f22f695806eb09a3f9023ee0ef16600172146491cf7ecae314eaa7ec933c835462489a153100d0d523c9b1271f2aa4132a69771ebd7a140366f04ba5096f8a0548b34ad14462119e38685ebae4b11f10fdab18043ae4fc1e242a1c00ee03b91dfb0198a50a9dc69b200c244bddc082176c2e7c44d76b579091a49a30420c36f59ec41cd875c9f91366699299b178a4ed170c70ab689c3fa94d894640d12c900cc62111f53e29359bace79f5b65f34b56efe699593fc5cad0a3cddb02e9305525cd371a42e2c629887140d12840d095623444b47139124777487be2fff8834c6cbd7a43e911421471b5e85af3ceec22908d29f62a4c9ebe9aa31201589d85d220661c3f6954b2545ffa8721ee8b8f9c00c74b6b516798d98c39a257f756a76f0f2149229c4d25ecf041fc091481595341f0b755f3c2e545a6193d48ee94593d8d6b66bd6df15b242c7f6f1d7259bb765974ef5ef46d542ee7706b898a2161d75cbaec5b58599d0221e1d8e7ef68a86df79d5ba6871a1d6c0bbc4031ebc22b2caa4498d60f5f68948489667ef25a824800cd552c89a01e0e610f77e84d8bb996b0b87d9613e605e3bcd5d2fa7e00074c1151b2b91e687903613aab9b4401d7761bbfcc12593abc457b74b5fc2e6b1160491aa30b130e9f44ee70dea87f42ecfe2e38cd922e09ac2d34fd94b8f077474e06d50b4d4517e486f971c320b51ef0a994fc419a6bc686eb1637e2cd00a01e04bc22392462907cc134d99938dafeedd63a0ec1566e2a23419257d3583c3b5884a0ff73a7bf123cef4b3e91eeda56a0eaefc38cb0b47f03cd402345a4e6dacaa327015adb90d8306c0454b4c7a6476cd1451bc77615b6543af6f26d10ed4167fede7aac90ae8282c3370c3c98710586d95b4a586e0f2e4af69b1d9d164b0e29c31edda05d90825c3613b02a7c3ec87bbea527082e74598a3247650584393de779317dfd8c68f4c48f5ab86da8aa50b825e1e914f7e0f2711fce7e4494513d573da539fa6e532a3d09d0280e62cac89cec8d311124ce928b1de90bfd01bafa6db994'
tb.