cnumpy.core.multiarray
_reconstruct
p1
(ctabular.tab
tabarray
p2
(I0
tS'b'
tRp3
(I1
(I550
tcnumpy
dtype
p4
(S'S40'
I0
I1
tRp5
(I3
S'|'
NNNI40
I1
I0
tbI00
S'a3ce12abdce61d6a60a6b726d2d33341ae4b480f0fe8dcc5706556493f5181cf295f09d352e79383758d43e33583ac9dd7d6cb0576f905215d08deaf08e4c414480140882bd309bfbf999a76fb1b12cd3fdd0db2dff09732a9c0bc4250b0f41c54498693b124afad67ee6f0a5c25c8075a316eb2ca61d729132be1bb86bec5635b93f7d18cfda450e9b071eb3acbc645f8a46c2b1e8db428a9cd1b8355976ce09284e99baa692db8be9ad39e6eab6221ce7c38cee1d99f31544b5c97dea1aeffcc16fa8eba0abfdad4f56cc15b3c48cefa7dc34782788c069396234142d5b04feeb9d71d1992f7247405240fa1f215e4008816ca98a8e4e19fca6c0adfd22703775fd79006433e2a533238968ba042a65be04ff63d7952810fbcf99d6eaa1e97e17a2157710a2501512fe6fbd05eb0b8865a5af7bd8181d714bf3f9acf746e005ab17b524a420e803d1a8d64cbcd96bf5c539c3c8f2a4d2b30ba1d7e25b15e7c2e4ab404ca7effee24e24ef61fbd68b03aee95c7b49211c9f822dbdcd0531e7c86d741d51b376235f7c8fde76fed415651c322b19264271aecae25534062e437d624e07db39662b5763b9467cc5c7c145973656fe23b4bfe5670405e290a80773697d8431b1e40af49bac94296fa00182a6c6c755bbc0745be1aa400fd49900b452bd085918f69631eb39309c2d1b69e3fd6bea7c529b84966279f55143f62a6f0584b79cb972aed941bf5a796a412d7ecb072dddab0c291949aff736d363657de361ef47b2dd5eb7befd6e1b69ad113c73f05cb4e5bd2c1bd2cfe65b0aeb1cdf638c616f1e8ee26298bf79c6ece717be70527616be9f631b8d8fe4f18f8f81be27e11ca0e57ac2e3655e2b1ee6970b1c714eb0267a9f4c472475af5b94a126c5dfca9439e990bbddb1b2abca8afd48e7852a3240e0d87ebe0f4932aa34c088be167207f8927d4e47d7e52ff47b53d6cb3da354ad352fa7a1b387cef3ad009a25ea8036afe81d280c36d6e71e126a0555b78569dcc10b35348ed4777ed4903b411a64e990e2e731e3a54081d0a5c49800e77af051a0824eaa70750777e3cd4196c3f918acd179ca027b32a07da992b95d593cddfbbc1bf13a4cc27a711ee6e95c303e639d084b20a539a5e8f6745a4b30717b281f97c88b337ac9327a8b20bf1dc668661434512bbb9ce95740f5035f475c340c2432249ecebb13c3eb11f211b1392023dfe94a5f60c8fdc43f8a960abff23e217b2c29d675a6eb2c4a176b657c614076d3f1e7381c00f51a7df2a1d6682793cc8c2cef9619e6d3a0112e7414a7087b594b798037f78654e94154445d41ad67ad63937d566879693e040e5b83abed574304f77b9015fa011d2ebf79b03645f6c1c6fb4dc6abb8aa5f431e0786057125c9ad17eb91175fd8ffdb94c8f8838e1619b737988eb75c3276c2929fe2830487f9acd2af1111dd67c5320c21bbaa69b8ec905583dd49d30ac718be2ec33a76dced4dee2e963a642f1a8af50e28c37767cf1587341cd325902908c61e9461473513a7e03f174ba15c128d2461bd13ae80681a071b11a70a317a2a079c0b20bf235023d4782228087e71789cbbbce528b389fa1c27d940a531979678fa446890f9de889b9ffa8f23304a4180d76cfee5eb01c31539be4c2aafa47cde00e572d055319275a5c56f927c418227b6828bd525fe55950cc1f4387089e675cf2206e6a2656cee322d45669a995bdf15a0d70dc2aa2865e169369ed3f8886f8b2b9395d5a590857d3b7c05c07834815bf70393b84199e286702edb62e2cb6f8028563ed2229ebf79e444f1330a72f77934f92e4cfdff2e43f938594ae87bb0e0f1521f42844b3a7b9e6340f4b9f4900b256b86f868e1988681131a603c7c898ad477c14b925b6032e0f35960674b7f2912f9ec5d7dfeabdda0d87cea1c1a7bc660f23ed8b56f42dc7c6c148484b9433e3e3511c1b9b8861e31b0507acba233f0e1ec0934524512907a7497b304e22f8780e9f3f0808f45ed108b127f16e09b722c09d37d594f740846ecd4f43ebdbd314da807fc21cab3d9e0930037f57d739d580b15e7e7b7d4dc3fbce66aeabb840a39f7c3159711f1df2f3bb07fc4118bcaf9c080ae07b1b70eb9cc6a57357b4d91abb9aeb0e58b7500bf00ca97ef5d6cccbbb0350872a9a7d329390787f23dd65a48174e60f7eb660cabfdee10aca1bc0c97cb6a00d0c56a7f741f2c916ed4839a84856508c84deeaa46c3e6d42059cc71133df16127fa06fde62f3b4c34e8912ca84752badc59fda1cc638efee7de1fad38b7b807c2403a957d6f9abba7d5892b0ae9e4431ea49d67103f23e9bc33f760cfb8b422e3a6b8a560dfae5aaabd0c32cee5e1188bfe589ca4630714963e8be4f336f361e650969dee30e12240cb9d7451fad795c1e90786c2f900a9b96fb15be3a3e71575d153d09cc8ef38670513229acfd4cefdab06a9e95200b5341f40b8967d6b612ca7d4037d415bc1c23c0982ee7611ab206d55ae9e70676c938dc660a2fd2f2c155602827ab1c51ac6226e3d559c34f9946c581f77dcf21bbaf499c41bd881c6f8103d2e1747a6c723419d08933156c8401310c69ecc46720274cff4b17020db1fd95ffef0b7799c797bd45511880748f2d4936210eef6221b6bc46cf16b2e20df7e4b1d43aa305804a73dbb86354f8012b81aa3530e4c30ba8a533e9b9f35ef93d4f900ddfa8785c851095ac581fd1e4fbc8a681a45b6fcffb80eb655befbcc0bee4c80f91d05a7a629b11cb92de2ca09140c45cd9ca21cbd0653edf9c01b2cbb8e8b889674c444e891078500d02a6653dcb0943b080db64f65b69c785bf8789f16a1ceefd92a2354ae058f95a283ec593984538024f8c1f8c44a23f804edbfae990215c33f485521247ec5ac45fee91b2ad25242545454c80af54102cfcd608ac49a650ba7f4cf6237b6f210c3b8defd0aae44aa1193006713e8f35db85e3851148dae99d5b482005a38f5b012befbb4f8f3f8329095e5642801b005d06dd2cf8981cafd2e2e6081faea57d9f092aa6569adcb36a14033106d30b2141e975decb526ebb808940d25650fa8fe339991663bed9ba0859da082a56f2b9d5a328f22e5f121ecc863b0f55ddaeaf8a93b21757dcd2c25603ec8c97de3b8e586e7726c75b9d5af7460ce178426c2c6107cd14b590270b6ce0bb2e37aeef4cb9cb28b6e4ac36aa808e7e048489c608dc69762c76034e0ee2da0d2cb84111fe2892fa140fad7a9d532323a462fc0dac3b5e8045ffc30a907b4c04da2533089fc2c8d8be95b6d1ffabd6173f637d267b22d7c08057b31e44ee71bf93e1a18c034accbbba9d9de17d698367091f9d69a7d188d478808280c39202c14c7441778b86167861463beb46bb1e733a9415d3281e2b16225eab2d1cc3e1aac92dbbe6b3607976082ed06e7dffa830cf5bce00da0a8211ba1b3f8915d54ce4a01fa52db8d8758b1adc94814653a3e4f9de6c4fac481af317c9b1d53fd9d36e6ca2821ccbc93a0351b6d10fdef614b437a740b52cca97ee9dfb4041d5ad53f73fa3ab0b95f9ad9cbb89c61f742e84101351e3f4f9a5af73ad58fb0066031052ad817becfc263a9b06200927063e97ed135e62a5a8a26b27dfeff21f3c6e5fe7cb7e839ac584dc2c4d355b893944323e5e1ec6f7db5826bbe771cba88d74ad5143b4c63adb9506da9b2c6a70b50404e86083f6201015538ff17c25e86e09fbe56b22e25c67afc66451d3b775d5505d6f1ff133f343388bd611b7488f99c06b15b6953badf6c9dc4b2977bfd46d2c38dbba5c42d70091ccb9bdf57bf2737fa2f4b93393d27da1539dad96bfee8d3cecb447649c4453fe90f29bc5d5ff347665c3f6e319a52a17f7cdd760162a1378fb9f9c86505aacc0f1fc81c2cc6c45281bd0969782acdeb53a7a4df491521913df2cee0046cc39a39390280df58a610b0cf8137cbac9581dc4e09abd7b94ea3f074e21732d6492290811207edfa3cb463e6cae25336b756d741222adae2261d23b0c220b8b1552ec1be38842a8ba85c947cc5280c3f636ed0294b9967429cc93a90c34fcf50eadbfdcd4028b8e3b061d1ded87355c4c144ac1bffe8e8a3eb3993b332f58e6e7ec517a38fd6cf5da51fc24fd2cb9c327eb6fd92f976ad2ccd5ab660e297b727e8ccbb56c1696f81a3929b3d141c68615a3924e15abf8799c35e9f29d232abad0c65f5673b7b3ac43e82146f0fe63a43f8751c802494d1d19d01ccf5ccf95f2f011bdb71ae4e2ddb8f4b854e52fefbeb3d1ebb91ec934b5ca53544619cdba27579376f3185a5404921a8787fff7000328f94c2c5e25af144905b0a0e55eb53fbb0c32d32163c741a495fd585d3e03fc055ee7e4a90159337c47fdfbcf8b74cf35171d74a121c09e0e54cd0a1afb188677dc6a2f9b163c11f40ae557852f5d1dfe971906b17a515937758b1288a2cd61a6789a2731ec028e47789c4f41e7d53f7c0e47af009a69e597c742dfcbfb3cd60927884644a4ca201226344a486c3f0d8128725c0d256ae58fcffbec13d8fcbcaa4efcd58ad4861a80f6ac7cc415dc65ce9f506f67eeca71e5c3e9f146b1aeb671196986b5d9f5611b58c2a746ae226ad63b0d9778c51fcbb11cd4420ea44aed091afa8dde36b2813a8e44ee337e6859ac98c66a6f2c5b86aed37b4d8078d83be191d892d44004151174eea18cc4ebfd9d0ce8c5d6867de333ccd085f3de0e1bd8896b0f659570648e9ca1df639e92e7b982ec7bdd1612df127567069a2b4642d7d02e8673bdd9c808776c6e8c564d263c0a4be93cd79d792839dee79b0b7ae25e367182eb0de7ba799288e43605d8125895de77819128f24ef7240a13a14a2d577160db3987e74bb8a8cbf2eeb1cb6b80561b04cf7925444a6679c480838ff13bfd5ddb1e38172a9fec6ff72045cd071b6fa3feb7eb0353466fa863ea77a347bd6da4e85902d227014c635536c298f2b51b1f2f47dea6189a3f8a4da502ead54aa03637214c0ca202c177ef0b1ecb6bdd943ea8fda87e81852cb31c0ca5754a88c4991a21f2de1d9025f1768ea61fa837623b58d47f1701a8803ee8554a74bf074b808417a6becef7ce8390bb5b01f973b99d8b240405874bf3719cc9a73a372e4075670fa846c547043b78eea42bf75f5f03a02ac6dc998a3afdda96200ac893a48afc9146b143e7d265a22f41601cb157502b3b724187bd46821622de8205ddcd3e28a72e55cf9f311c19b60b35fb142a5900df1ab4467362d2c23c6c2fb0c94613e9df443f1a451b7fb42576e009f8c9920f2689ff29ebf6aae78ae4554b215e56a910cbbe062d6f1dad037ec6a7b5495cc4ec1eba0f3b1155016a604b68730163f3ca154a3d077b2e3591808582cee0276aa35f82a4354b6fab55e937f49aca3c4c589bc9def4706a5b0f78733f408d7aa962d86f857ab46f2228f5830a193d2a6f4820ee8705530920a69c1de38e036d9c552e9e0ff52d5b99e5f7b47110a43ac0add32dd0ea81274f6ed85bfc35c56749507f13a505eb6e3b825c7d7fbaa63dc315defcfe12c64c92826ad2b97fb71d80c86f24ccf5c1c8a93d5f34fec371b1ad5bc68d091eb630da0efe3197e6c1bedf5509ee4e0d6c48800efe6112755cee7d04cfb65a9a724e48ad270541f5d6c1d4fb3b618218e198ba1746f03a9b43cfdc732db12e5ecd4349205498dd996e74d7a1eac0f6f9ddac3d81f2480813f64009ac17807cd9170b06a5ac3c8d8eac77318bc18260b60efa83c420fcbf9d3f7b63e9029cbbdc486512b3391bace2e073df54f7f7567ce176b94fa6626bece0174d564db88c0278ed2e9db6f969d615815d1c0afbeebbb021476166fa5e1bf5e171b5e5e3612482eb3282ee221b3ecaed703f17f5a207d0ef4ebf70f26b6086c46b92639a45c1c595fcf3f464f9c72ff1e9bdf962f6c1d719d9b88f591f380357357a6935ed5d03ef264739f3277037f49f74be4828034d0c74473dad2743d88141d389f5d0faa46bd29a1cb779343dda124b7a6a7ae4192a48552915d2b32e8870241560e5681d3a6acdae41e747c8b185db60054d71e95c27206c91aa71ce2fb6ec3fd559816bf6f3a13751d0b2c0c0ca65af6a21ecf87fb9d26181a5d3a443def687c1b5c2fe50e225fe2ab063b08fdca85578920251e1b24220529b5a4d78716a9d6232d3f7352e8cbc3775f7b3265c9516bc24c70e10171c8a8589a025fd86f225272a24e03c49d0b304150ec187e905ac6f4096aec3b6df179f1fa239b9d1dd3f120f1103655e62c8c629291e6e229972a7317f7374f47e202b703a88d0e8cb88474245e1be0b51e531747ccd7111ac4aedc7b24d616beca1d234573329d997df307c1459b30596c6ab7f38dffa62081a2f02299ca73cca6f7a787eea749c916f01f4d8b3cd25e03911c37368d93eb62cafa641b6572bb8d4c617609ceb1263d51c42b98a32287d506e6008ef84076bcd0279b41d5b0724fd580aed74f6b5c64ba2a2c0d626b042f1dbd4183ef04481d7f945656e9d95dd648fde064c102effe04e81f0ee00803b4bbe9e440d010844dd097d93babece0fd4f2edca3368384f3d1d9b0be52c1363271bef05517a246c087710ec4aa78f918425bceaea832d6916fd4f75479ffd336bb496f3b79f0882c3f8c3136ec21ff9512b4cd83203474499046e53dd912f7dbfb7d0e4bf484cc95162c79bff83a02ec8c29f57d7389771fdab6292c4b92664604b7c609bd2ed79858cde2278fa421bdeb4b997ec430b53678fad0447f24d9ead0de808a68f6ab9c95c8244341bf2749edc96be9be05075d961f22977c5e55435de85d1a04306444171c53dfa36e8ac963bc7018c74062b9a12ce3e0a720f54ed59cbec4dde5b16508051dadfe91a89205d97f1c5941858cefe3df1bc621935e375e50b3088dfb6b50b14edb33d5dfd2b14062ed8b2659fe096dd4d7390ae9a64d1f1b8fdf7548433a5807a5fe2c8fc970a19f835318f6a4cef7fd77800ab2b856005be13d747efd6c43fb5acc9318e31c808cf4a1fe0319f56486c29544c69f654ea3d6421e24ba711c25383e23ff994581baa77fda9306389d917f917c18b84f2c68b8ec7863ba8c260df94c0d8815fe200dcf22861ebf59362a61206a15adf0acea37d5508002ebdee6b173e87d1ffb7259427aa9913cd0c212759c44483d7d34b28a53f881cd1728e26bc8cb410420333ba60b190a5677e68e58a4b5e5ea91be37f3e71e397b321340c40499025eee7679e56239f4702dd6f286014461898e3abe0dc64565f0594e4a752238469176d715c53e0f588b20de5daba17c321c582cdc4cbc163f32c3edf75e44a11f03bcf14f1c0b7290aadcf56c1367b04b607fe77583cd8d7a840c77ccc907925524053dd1e069f3240f4126382c98dacd4564655d803ec22faa7b50e1faaa4000873b83bfa9b7925f73c3a8069426f62261f239a39c6364bb000729743411803c55d99358a30b8242cc62ecdaf76970c3664ab96f9f767fd6cec362f5c9ce353b170c07426e66a842c50346c3f6f1f984d75e6d119c6f53fffae70103ffc7648d89e65751daca6ccef746b40d517bf1029a927ecfc35b133543407b106ec589d6d0a2a2fdd1615718301ec84f498d1cffa712a69ab264e3d5e1363bb923fc003aeae470d3aaffcbae29c006112d922626da6a4bdbfea31545268cc54dd0dae967856300da39f18a4be45f5ae7703f4a3e87ab12d5abea19dd59519736b6fa03fe9cfcf66a9aab2dc3c9cd657249fd0e14aa3bd0c7489812301bbfeddfc6e107d36ea6f2a548bc806e301d153c9a57c65efffa7df45aa23a33703240a30685d5dee8b4f7121edb05823bef8f9a097b2c5fbc89e3c7758b8357a7add8072dba83cbd236a3a51a8c2c969443ae7782fd713dbc01d835a00b4e26457e15b59bd2e522218a25f2b8369f779607af5d596d93d163fd858df1077b25811a84629300e97924414dc49666b9fc17ba511de202660aedbaae69fc0d835b7f52ad39c8260ea50056a7abbbabf66551fc5b3a552eba7f88f04d9979c59beeb7b419d0bbea0e7df7b6b61885b7aee3787b499454b6b72fe5242e8f0a9adc082d013fcc87d4bd78f64d60c4009f7060072d74e01c02f8a03bdc6c50b3a977f75d36dd6fb3e5567d77eabda70fce32875ac1b8fdfa72fa5605e923592145cbb92f8559137864d904ff99679bcfed6dc896097a552aeba99f6a0b78ffd2d79a0ac47205f31fb4b5113ad4b7e88844f4b1fff2958b6900534f2a63cad7701954965543f204c8b79a9c1144bc2085a2217fbacfa7737778944ed896076fbc707625ed134c424addf50a77ab437999b44f865558e5d850f60faca9f80d26bd635053192a561ce9a8b7c926e9f5ec47f9902e013410b6fdc41ab7e0d9a82314486229f10de5a57d43735bb82d5ef46d7d1d3c723678bafaff438eb576148306bee96f7cc9f2972f9c5bb3783e6f33a0ae24840064b14fb33012e9010081ef4e800ef86f7bef823a3d25e93b53caad12276440bc3fb0f6048ac9eafad9ced59c59af74fe1ef74f67c167784be6f4c06d973a07b968b8c95a2d5abd7a57bc19eb175c18c4e25b8e3e5b60d34c64b77284a79834fa024900071245d1d4712e0c5057eacbc1a125d16040a774fce5d16d6b7daa9a557623f0f710cdfce5a9520302a38577029e7e8cc46a2b3044ee4c4df0a50b2e92b3e58f87ecead2e11f0281bb297cddc9cf7fe122a3e0f73e5f13eba133b2fab21f9a176bc78dfefdd057114232aac1d5f2b4a07e38f5bd97ff9a38a0a07d3382fcc16da1bc6f17042e6d6a925923676f0a5955bdf4f0760d78d85a2a72f8bac06653c9ac066e2976540bcbf65d527299799fa6f90387d729739b98737e0b7e726386fd0fbed091b8bbf36eddb8b9f7700736d021f468b53f72797a4bcf195402b8a0c1ddf96553f2a1efc2080935c8a5f9baa90a165ad59f6df158a105c2834baa78eed49a8355a37a567a6a205608ffbfbfad6aceadf44e6b6014afa861ab0e6b760e2792bbbe27220d9f213253612a034ca03f0af8a99252c2c82702fb5784859d8c8fd3c4d6df371d531fc89ac53f8cf641239a2b51bb797ee5b42f10ea36d3af09ef4d942820940a326e878f7604d8a2d84b94dd2bb6eb1812e5bfd0ff56a4779d9572b2856916d19d8bf39650b776f35510dcb43d13d68e62bb9295855d5fa408b4c518f4dd9ecf96c97a59c86be646530d561683db68728417ccf5153ed9f7dea5c099ad1349514c185b4e1611c9d6c3fc2618aadb80f2d3da0022db6c82dbcace4a9aaf9c908883f0ce50562f337b4887555556c5f0049de84a2c453c0d1d64de191ca2923dac9bb5750a95c91b42abeab10792ece268de2cc0cee5ff202ed5f0542bb1ff6117ebd50a66a94505abaddcd98085e06cf716fbceb4d794f7c37a024d287b2b7fbc922c39a0c73bdc3a4b9222da51a20e92611ec30fa158c324b2bc315cd35b52ef15dabf3bec2e72d1c3c6a50802ae9ee56915c9b592d80f49060e3adaf4ba51dc9c6d8bf50aa6be6c6b629195cf9fb7437dda2ef30be53ebae40ce8e84f0b2bdda7b5462416208f637c8c97031a745396b2f6f88dcb2ee63a7a71a51653d2425fdcf1a9aa79ab81ef4f5609895eb14b81d022bcd81b0043c3c6b6d6d7f6e7500a0b818528474651cca720f9bac8c9337928ba7885d6a423f69e03bf7884192bf8a130994ff729535983ce40ca6a16a454239ebf175f21fe6d5f4138f58413cbf75b26a2f2682065b81e27b2fc43842287a35e6bd05930443209869e92b39ce061996d4056f8f0141654370ca46c73a72e293958f3cfdb0c88d8887f738e015d5bac132448536cb66d5487521418b45428cafeeca09b08032159d07016725e738fde3507c92d47528085fdc2ca844389c3a55696b8587d7e6fece496fad8acd21cc22061089bd2ca2f55cb535e939181ed2048545286627fe67d79ab6402cc5107e4793439cab78832a242a4c82e98bfdc9028904580d115158be73be9b92b7742fa61423630f8b4e954982cadc06ab35d2247f1f0a8e922c57ff44d5fc33272842824e8813788b6779a5157bef1d87199fede92e9558b31308d34d8636112ddb1ca081c44161a99737bb46f26072a027a3458803b79b077473e4b010b7cb4660a2584101fdb2743b0fcd51b8384c4a4e694b9e19cc7c95a26769ce0d150ac242a60223e44029111a628e2bffa272b98239b50b4d7cc613479cf372fefc3e460735ad6cd848e28e63785221f20e90616e3715cff599c18e59ec271d0a98060cd9b5913d87dddb5a181f52832e649c0b9eedb7512b4963e6858afc93de0e89edd28bb743ab1e3811e0acd4a0ce1c2aeaf21e84efb50f1596493f5268fb2ef0118ad0cabd382e6c474013850d1d7397cca81e374ff6b16454c53cf2ee59ef39f732ae45bda52cbbf6d8bcf8f13f12c7ec079e7b9c5e002b1a3a469ab04e039df3815d75b6eb298f489bf7e8aa40c0799e49d7abc2ceae5d3f9a83a8c9b2a674d87376b549d0fbd10f2fa4d7a0d5cfb19bbec5c900f731d74931b1991077fe8510236c893c531e591c4e5fe07739aa6927b399d6c6a36e6e58896b5164f3a7f1bdc9f78416f3ef662cf1174d1f8c634708d475d9627a243fa8ecc7afa8ee8a964bfc1de097ed56e083411828884258784ff2b492c6131da7e4f428a497655b5df04e6eeb2582b7dfcf693a9d1bc50a7ffdc019b508fadb43ed2590a8ad3d421654656562ad3342b60ecde6151f065bbbdc40198debf5a0b64d9c988ef7b3f0b2747b44258d03731f04690a056034fd558eebf4dd30c22984b78bb4a4aebe127c359abfe461eea04a204fd8f7f9369f1e7f73b359cc1ca001c39d8904c4c60de9874aa1df8d91a12ff109f36c29ea8ca83f4d9018e7442ae8a3bfe55909a78edca9457b688d4fa4998d11b58860d98db5b268160da9039988115957c645de4e587558d50ca5e041acd4c8fb208abd0d2a20846b15631d817438871bcede7b5e8fe0c9f195c624adadc189989b99033cee8db5da81339c213b000b00a611edd17cf4ca7a63f3bce2c08fd643b86a0b95f63203f561193bf9e58b0eb3694b19d6f833210cce1f3f351742518f2d89e7c3e6107d900a884dac6f09df9786b42c1b27f253b9645a565b9a364054879abdcc74170d265c4cd5209f0d20cfc2f0b8c686baf7729b817137e25a2d01790ae24ee7f07370a50e444d7b85a1c9f329e7f19e454a6f65a503011bef86d05d9697d882d80a589c1384c14a89884a2145ef32b9a17890a2b957a8e2b089223b048a1ed69413c150b382fd6b5a66d555a43a796e690b04c8e365946574bb4781dfd5344058fd0fa21b46985df9437a747e5c141fbf7f57d7e0db68e863768f4bc47330a78f736f763ab45956fd12e0a6f547b87b48fd2132d30d6587d6f183f5af776a88159b68eadad520c020775a053c2d794280b448469ba0890e32e68c96057004a72661ce14db456b4c5f97843143defbd0a8dafcdb7cfeb53c7884e5c6cd91cafa941c61a7c7f7bef48cac686628bc114013383a62bd62e374d5272121eddf210efc2e218f13ba7c389bcf99accb3752a6461af17e00ecf3ed2e6bad947a67e043fe48f7b137531f0c51f2144ec3af1ca253fde548d29b10aa3406bacd7fa61a5f5dc31dfc4f36c6f70f4ae416a846761b4fbaacc59227271e0bbcd44c8af9d7ca4b039f224cf1b54c267d3042605928644e52d5f194ba45e6828203c7c0262646fa09993c6574ff0d88c56317e67e7246a38883ea500fce54b55a4264264b266376c6805a61e5acade3a22d1598ad8415744e26ad9ff01688d560ba871b97aa270583a5eb6f925943a0a822bf4867a435c7dd677daee62f919867e5ef05ada643f8d97de35e63ce7abfdad751a9b6c4c16d6b41f4a769c7d8caca555c39e1309994dfdc076e0fc20790d3872c0c72588dfc2b874159c842a333ecbdbfcc5afe38891b4521b7029704cb32bd8fffdf3f9f5d6d0679c9573801ab889b7fbc57cde41df43e7ffcbd032e29db473be26703d22660e865ea2284dda38b630b25158ee67f8e72a8b30ef03f9484adaf38294e7c609338d446d28d29ebcf8ec0ffdb6d6793e5c110fd5b37c3c34beb2a12427440e2241b3cff617878c5acffa13925270ba31059cd9ecacff3d70cf1a3534a621c466c8edbc5a4c33a5309561a2d78908842b062c586a900f42cbc118f08bea5bdf91175cf3b48ecfe566d5839fe7dcb56bb1be9ccd0b38db5c48239b081db6b81dc0686ac723c838b147b2926af9ebee26c44d190eaff803cb7ae6b1cee3ed46965bd241c8c3056ee1c040299a23046895c107d13d044fc69b4845fc5a5c588f204995fd6683e80a29461ae3dfd76c8e76b0c6a4e461c0fb933491730a2422688c46f244e4965659dd5a9f1448e7e5b7764a1924aa350dd55fc4f53c948da50f0b1389514931a04d6c7fae29298578e396dbc1f38542ba8199f48b19cb7eb73642db0f5eecf1af7619f132b0138e53e3bf1a09dc54ec7c4ffe404b330a6eb3844a15457dffd5ad47fe8c6c90b8f120b18804d0d5e9d11a8a5c5f5c89f98827af80fe5cb541132b70361d31476c5f348d546c8122cdf1ddbfc347b9b8f3d90579c8430f52a4e5fc7865b8dbe5fc282078466f63afd6e7c2e2e59b805475319a3dce1524b64af5d2fa02f335b2263931a9af83ba696934dd08d640a3b4e977a2f0d7be3be81303033d8d2cf924b623df9f7bb41f9a65c795fd7a2cef082f0f52df703ca8286a05dc5e5398d60b1b2c9a87af35baf0108e889b21d50d7bf8bce650c339711170ceb96dfad32300a590e5a3af1c1a4c2ba6eea45afe549a28dca297535b2e1724b9cb4dcf0f2053c35d53315c1180463ace791c6b6fb0f565af39e00b73b92ad9a0c4b8495917458a058678337e50946f09429365f390a7ccc1db4e1f608d34f51e6036f9d0e27d07ea3b06568706ccc1ec5f3b8e7e5d98009426589a812066ca8c18da00199becacd77570b34644b290d3316c78e3356dc8a1b96b33f2f282a9edb9d647092ac3f6ad653b26213c9391f23b5b63b8db4824ba3d07aa101ab7e766e61517f5cea3bdd45e4118ae540a6fb23483689a1f874d23e24f6bbe9b9474dfbc67624e88233f2a6408ae269525b89bcb54e8ce6ee00da61f9e09bf48e71d2e90593cd8003c29ac7e92e9a02b2254bf88435a946e6dcb5c7f7a5871d050f11b2b94295db0d1e0a9eff6564bf1e34c2638447db64f89f2586d6e32ce924c7ce5457390dc402e04d51621e89074a7c8b3ea8599f2f0c40e7315b1cb2444060438db50d221f3d2d4e4d0f9f391ad52b66dc86cb80c62eaa301f16ddb21c799e0087a2f86e45e9c49e21b2a93851c9acea49bac123f48703b5f996ee73b084ec644fa74dd492869e2858e152bcee84ce6634c74fda31c3fae707e9b079e2ed84baabaf20cdeefa9e12faf8436cd30cb1c963a64a0ccab9da37db698889d576628ffdde3e7aec8196e9e87eff8ae434d718125766dbf339287d7bd005c8310bf804d2ebf6c230af68b144eaca1a1e923e8a30e0d6d3a71738ff7746b60fd4f824ddd1780e99106405441cad021a2bc8e81c685cd455cb144023c75ecc714706a992d38df33b2b4eb9adc49e0bc6131bca7a87ca84a84ae404dd9fac061bf2467c6d5b0ec3e9e485b5c853227c8a79dc574fa923a20d8610766e675e9fb1528bbc39da8c7b12af07e206e52cfe6fdc07f21e7f8fa8f7ed8a96410160deaf45e4285983b3a58ba3ec0943ae23fb27b31e58dea09030e5e6cea7aa19b36cceeccf0ca01913af5630d13974ca5a7571d492c10a20bd238b5381afc747ec13e7b10734298252a27e475ea4360817e5be2a6e2db85730ce0d5dc9222ac1de153e2d528f6c0b29b7567f469aa14e66e3bbc4cd614d47f660918a827384d4600cb4465a3085368de65aafb0d4e794f11eb97644910035dd8066acaefa57845efdecf138b411e441ae7728840ef1baf189fb6f2cbc43ed39843a185a5d8943cedfe44a203327f0419bec1cfe424794cb3849de2db067613836e122972e5136327de4e977d33b4d1a5f05bb6387fe92bf418ef0afb0a89c7d48ce472f738f8ce6ce209ec0b10d3019138b51b241ce08b755598ded4e5f789f0e88a6aa7ee35651fcf1a9585fe26b8f213371a515a2afe98cc0c069937df6f7a15a1f8c58096dab311bf366fa1137aa6bfab3dfd6609f37c688d319b237964830e6fb72db2709a3ec5f67cbe6d8aa60bcb20752750dd4dbe03752e5712e1e63edcb6d2a6a0293fb2fd719b703a2c66aa64fd276799d1b91a1414e15b2da90a742703fd9874a4cdc1cf8d1534e23ea71576a536ba4dc566c18ef2762d7e41a03ac0958b0ee0a5d369d831ef89b7d528f7b19a70ae2e55152f8a8cb528e7c8ae0f39650fa0656bd124b8fa2bc457eb0e565ae7d0808fef4f815fda87deb017226e181d1e69824b49783ca7608aa1649c31198bff5a1697a8826dbda017e38f75ba6a23c4638bd06bd4681451fa1176e569e22e288442667233930a319553dcc49888205986062b0f255d9bdff42ddfc3cc8876c54e04805d3a2c48a6244acce46e77d43796d0e5d41f24c1efabb3f9168a7e2e36d16cc229f1cc73fbf19c0ee7a6265bb057e42afe74a3563e25602b8334ea5a5ff86ba354daf117e162f1c31c7871cce03f73dd9ead670f56968e09387ccf4c606a8d582131a63d98d0e672df02f1c933b373164d987ae056ab21532c66904181820dc9d1b7f4815a20eab6a4f632f1ebf212f809a88da35f658bea06c25ec4adce812fba57e08914ad658b69066960c709454758cbd931cbd9b987e7042a9689e28cd550361a8f28182166e0a12f006e0c841d40a381584056b0f63f601075705a161537766fc95ebf01cefada7a7eeb0a4ee11197ce2957a21e4b015796b278b03d9ec2dc0f0031a8ebccfd89e87c4f18b85f18ecdb15253b1aea9c304df3eac60ecc93d0dfb4d53622e381509a298bf485356a82fb70a03df1d3789e7c3f4e0aa17a725b939621572a0d34058c89d9d1b10dafeca11cebd467417bf919da45d5f194d7212b7ac03a2a369683dbde9fd2d3f2a20641a58187922c3f949d87f7acfd9d2a01811814f04b84f530cfd6be47c136498d8072e449d0fe60b9af32fb0e76404c940baf54239638e3448d61fe16360125cfb0bb3098bde6c2354cd4b9578a22817413171df4b46c61b9a15d2bef781823795f14530a9eb2a9a0d60bd015d6d6dce6b91f8eadae1249771dac794e604bd9739e820f5b874ab65efc651fdcc897f6799176b14ca24f0ae422975385fc0b8db52335e638704ab45937b3f8ca6ee3d5410a936a92dca59fff7003200f68ac9635f9022dcb452fdcc7c221bab26c96172f76f05006812fb37e0a4268b3a3c551357b4297586ad505ce18845235a8889a67091e381cd7186069beb1276554bc3797b132bd6ec11fb142ea76cd41cb1b2'
tb.